//
//  InjectHelper.s
//  DecryptCore
//
//  Created by ted zhang on 3/11/18.
//  Copyright © 2018 ted zhang. All rights reserved.
//

	.section	__TEXT,__text,regular,pure_instructions
	.macosx_version_min 10, 12
	.file	1 "/Users/tedzhang/Work/iTunesDecryptCore/DecryptCore" "/Users/tedzhang/Work/iTunesDecryptCore/DecryptCore/DecryptCore/InjectHelper.m"
	.file	2 "/Users/tedzhang/Work/iTunesDecryptCore/DecryptCore" "/Applications/Xcode.app/Contents/Developer/Platforms/MacOSX.platform/Developer/SDKs/MacOSX10.14.sdk/usr/include/objc/NSObjCRuntime.h"
	.file	3 "/Users/tedzhang/Work/iTunesDecryptCore/DecryptCore" "/Applications/Xcode.app/Contents/Developer/Platforms/MacOSX.platform/Developer/SDKs/MacOSX10.14.sdk/System/Library/Frameworks/Foundation.framework/Headers/NSObjCRuntime.h"
	.file	4 "/Users/tedzhang/Work/iTunesDecryptCore/DecryptCore" "/Applications/Xcode.app/Contents/Developer/Platforms/MacOSX.platform/Developer/SDKs/MacOSX10.14.sdk/System/Library/Frameworks/Security.framework/Headers/Authorization.h"
	.file	5 "/Users/tedzhang/Work/iTunesDecryptCore/DecryptCore" "/Applications/Xcode.app/Contents/Developer/Platforms/MacOSX.platform/Developer/SDKs/MacOSX10.14.sdk/System/Library/Frameworks/CoreFoundation.framework/Headers/CFBase.h"
	.file	6 "/Users/tedzhang/Work/iTunesDecryptCore/DecryptCore" "/Applications/Xcode.app/Contents/Developer/Platforms/MacOSX.platform/Developer/SDKs/MacOSX10.14.sdk/System/Library/Frameworks/CoreFoundation.framework/Headers/CFNumber.h"
	.file	7 "/Users/tedzhang/Work/iTunesDecryptCore/DecryptCore" "/Users/tedzhang/Work/iTunesDecryptCore/DecryptCore/DecryptCore/InjectHelper.h"
	.p2align	4, 0x90         ## -- Begin function +[InjectHelper ITunesVersions:]
"+[InjectHelper ITunesVersions:]":      ## @"\01+[InjectHelper ITunesVersions:]"
Lfunc_begin0:
	.loc	1 47 0                  ## /Users/tedzhang/Work/iTunesDecryptCore/DecryptCore/DecryptCore/InjectHelper.m:47:0
	.cfi_startproc
## %bb.0:
	pushq	%rbp
	.cfi_def_cfa_offset 16
	.cfi_offset %rbp, -16
	movq	%rsp, %rbp
	.cfi_def_cfa_register %rbp
	subq	$176, %rsp
	leaq	-24(%rbp), %rax
	movq	%rdi, -8(%rbp)
	movq	%rsi, -16(%rbp)
	movq	$0, -24(%rbp)
	movq	%rax, %rdi
	movq	%rdx, %rsi
	callq	_objc_storeStrong
Ltmp0:
	.loc	1 49 16 prologue_end    ## /Users/tedzhang/Work/iTunesDecryptCore/DecryptCore/DecryptCore/InjectHelper.m:49:16
	cmpq	$0, -24(%rbp)
Ltmp1:
	.loc	1 49 9 is_stmt 0        ## /Users/tedzhang/Work/iTunesDecryptCore/DecryptCore/DecryptCore/InjectHelper.m:49:9
	jne	LBB0_2
## %bb.1:
	.loc	1 0 9                   ## /Users/tedzhang/Work/iTunesDecryptCore/DecryptCore/DecryptCore/InjectHelper.m:0:9
	leaq	L__unnamed_cfstring_(%rip), %rax
Ltmp2:
	.loc	1 50 34 is_stmt 1       ## /Users/tedzhang/Work/iTunesDecryptCore/DecryptCore/DecryptCore/InjectHelper.m:50:34
	movq	L_OBJC_CLASSLIST_REFERENCES_$_(%rip), %rcx
	movq	L_OBJC_SELECTOR_REFERENCES_(%rip), %rsi
	movq	%rcx, %rdi
	movq	%rax, %rdx
	callq	*_objc_msgSend@GOTPCREL(%rip)
	movq	%rax, %rdi
	callq	_objc_retainAutoreleasedReturnValue
	leaq	-24(%rbp), %rcx
	movq	%rax, -32(%rbp)
	.loc	1 51 16                 ## /Users/tedzhang/Work/iTunesDecryptCore/DecryptCore/DecryptCore/InjectHelper.m:51:16
	movq	-32(%rbp), %rax
	movq	%rcx, %rdi
	movq	%rax, %rsi
	callq	_objc_storeStrong
	xorl	%r8d, %r8d
	movl	%r8d, %esi
	leaq	-32(%rbp), %rax
Ltmp3:
	.loc	1 52 5                  ## /Users/tedzhang/Work/iTunesDecryptCore/DecryptCore/DecryptCore/InjectHelper.m:52:5
	movq	%rax, %rdi
	callq	_objc_storeStrong
Ltmp4:
LBB0_2:
	.loc	1 54 15                 ## /Users/tedzhang/Work/iTunesDecryptCore/DecryptCore/DecryptCore/InjectHelper.m:54:15
	movq	$0, -40(%rbp)
	.loc	1 55 28                 ## /Users/tedzhang/Work/iTunesDecryptCore/DecryptCore/DecryptCore/InjectHelper.m:55:28
	movq	-24(%rbp), %rax
	.loc	1 55 27 is_stmt 0       ## /Users/tedzhang/Work/iTunesDecryptCore/DecryptCore/DecryptCore/InjectHelper.m:55:27
	movq	L_OBJC_SELECTOR_REFERENCES_.2(%rip), %rsi
	movq	%rax, %rdi
	callq	*_objc_msgSend@GOTPCREL(%rip)
	.loc	1 55 19                 ## /Users/tedzhang/Work/iTunesDecryptCore/DecryptCore/DecryptCore/InjectHelper.m:55:19
	movq	%rax, %rdi
	callq	_objc_retainAutoreleasedReturnValue
	leaq	L__unnamed_cfstring_.4(%rip), %rsi
	movq	%rax, -48(%rbp)
	.loc	1 56 27 is_stmt 1       ## /Users/tedzhang/Work/iTunesDecryptCore/DecryptCore/DecryptCore/InjectHelper.m:56:27
	movq	-48(%rbp), %rax
	movq	L_OBJC_SELECTOR_REFERENCES_.6(%rip), %rdi
	movq	%rdi, -136(%rbp)        ## 8-byte Spill
	movq	%rax, %rdi
	movq	-136(%rbp), %rax        ## 8-byte Reload
	movq	%rsi, -144(%rbp)        ## 8-byte Spill
	movq	%rax, %rsi
	movq	-144(%rbp), %rdx        ## 8-byte Reload
	callq	*_objc_msgSend@GOTPCREL(%rip)
	.loc	1 56 15 is_stmt 0       ## /Users/tedzhang/Work/iTunesDecryptCore/DecryptCore/DecryptCore/InjectHelper.m:56:15
	movq	%rax, %rdi
	callq	_objc_retainAutoreleasedReturnValue
	leaq	L__unnamed_cfstring_.8(%rip), %rdx
	movq	%rax, -56(%rbp)
	.loc	1 57 28 is_stmt 1       ## /Users/tedzhang/Work/iTunesDecryptCore/DecryptCore/DecryptCore/InjectHelper.m:57:28
	movq	-48(%rbp), %rax
	movq	L_OBJC_SELECTOR_REFERENCES_.6(%rip), %rsi
	movq	%rax, %rdi
	callq	*_objc_msgSend@GOTPCREL(%rip)
	.loc	1 57 15 is_stmt 0       ## /Users/tedzhang/Work/iTunesDecryptCore/DecryptCore/DecryptCore/InjectHelper.m:57:15
	movq	%rax, %rdi
	callq	_objc_retainAutoreleasedReturnValue
	movq	%rax, -64(%rbp)
	.loc	1 58 21 is_stmt 1       ## /Users/tedzhang/Work/iTunesDecryptCore/DecryptCore/DecryptCore/InjectHelper.m:58:21
	movq	-64(%rbp), %rax
	.loc	1 58 46 is_stmt 0       ## /Users/tedzhang/Work/iTunesDecryptCore/DecryptCore/DecryptCore/InjectHelper.m:58:46
	movq	-56(%rbp), %rdx
	.loc	1 58 20                 ## /Users/tedzhang/Work/iTunesDecryptCore/DecryptCore/DecryptCore/InjectHelper.m:58:20
	movq	L_OBJC_SELECTOR_REFERENCES_.10(%rip), %rsi
	movq	%rax, %rdi
	callq	*_objc_msgSend@GOTPCREL(%rip)
	movabsq	$9223372036854775807, %rsi ## imm = 0x7FFFFFFFFFFFFFFF
	movq	%rax, -80(%rbp)
	movq	%rdx, -72(%rbp)
Ltmp5:
	.loc	1 60 23 is_stmt 1       ## /Users/tedzhang/Work/iTunesDecryptCore/DecryptCore/DecryptCore/InjectHelper.m:60:23
	cmpq	%rsi, -80(%rbp)
Ltmp6:
	.loc	1 60 9 is_stmt 0        ## /Users/tedzhang/Work/iTunesDecryptCore/DecryptCore/DecryptCore/InjectHelper.m:60:9
	je	LBB0_6
## %bb.3:
Ltmp7:
	.loc	1 61 27 is_stmt 1       ## /Users/tedzhang/Work/iTunesDecryptCore/DecryptCore/DecryptCore/InjectHelper.m:61:27
	movq	-64(%rbp), %rax
	.loc	1 61 26 is_stmt 0       ## /Users/tedzhang/Work/iTunesDecryptCore/DecryptCore/DecryptCore/InjectHelper.m:61:26
	movq	L_OBJC_SELECTOR_REFERENCES_.12(%rip), %rsi
	movq	%rax, %rdi
	callq	*_objc_msgSend@GOTPCREL(%rip)
	leaq	L__unnamed_cfstring_.14(%rip), %rsi
	movl	$1, %ecx
                                        ## kill: def %rcx killed %ecx
	.loc	1 61 20                 ## /Users/tedzhang/Work/iTunesDecryptCore/DecryptCore/DecryptCore/InjectHelper.m:61:20
	movq	%rax, -88(%rbp)
	.loc	1 63 34 is_stmt 1       ## /Users/tedzhang/Work/iTunesDecryptCore/DecryptCore/DecryptCore/InjectHelper.m:63:34
	movq	-80(%rbp), %rax
	.loc	1 63 27 is_stmt 0       ## /Users/tedzhang/Work/iTunesDecryptCore/DecryptCore/DecryptCore/InjectHelper.m:63:27
	movq	%rax, -104(%rbp)
	.loc	1 64 27 is_stmt 1       ## /Users/tedzhang/Work/iTunesDecryptCore/DecryptCore/DecryptCore/InjectHelper.m:64:27
	movq	-88(%rbp), %rax
	.loc	1 64 31 is_stmt 0       ## /Users/tedzhang/Work/iTunesDecryptCore/DecryptCore/DecryptCore/InjectHelper.m:64:31
	subq	-80(%rbp), %rax
	.loc	1 64 25                 ## /Users/tedzhang/Work/iTunesDecryptCore/DecryptCore/DecryptCore/InjectHelper.m:64:25
	movq	%rax, -96(%rbp)
	.loc	1 65 28 is_stmt 1       ## /Users/tedzhang/Work/iTunesDecryptCore/DecryptCore/DecryptCore/InjectHelper.m:65:28
	movq	-64(%rbp), %rax
	.loc	1 65 27 is_stmt 0       ## /Users/tedzhang/Work/iTunesDecryptCore/DecryptCore/DecryptCore/InjectHelper.m:65:27
	movq	L_OBJC_SELECTOR_REFERENCES_.16(%rip), %rdi
	movq	-104(%rbp), %r8
	movq	-96(%rbp), %r9
	movq	%rdi, -152(%rbp)        ## 8-byte Spill
	movq	%rax, %rdi
	movq	-152(%rbp), %rax        ## 8-byte Reload
	movq	%rsi, -160(%rbp)        ## 8-byte Spill
	movq	%rax, %rsi
	movq	-160(%rbp), %rdx        ## 8-byte Reload
	callq	*_objc_msgSend@GOTPCREL(%rip)
	movabsq	$9223372036854775807, %rcx ## imm = 0x7FFFFFFFFFFFFFFF
	movq	%rax, -120(%rbp)
	movq	%rdx, -112(%rbp)
Ltmp8:
	.loc	1 67 30 is_stmt 1       ## /Users/tedzhang/Work/iTunesDecryptCore/DecryptCore/DecryptCore/InjectHelper.m:67:30
	cmpq	%rcx, -120(%rbp)
Ltmp9:
	.loc	1 67 13 is_stmt 0       ## /Users/tedzhang/Work/iTunesDecryptCore/DecryptCore/DecryptCore/InjectHelper.m:67:13
	je	LBB0_5
## %bb.4:
Ltmp10:
	.loc	1 68 38 is_stmt 1       ## /Users/tedzhang/Work/iTunesDecryptCore/DecryptCore/DecryptCore/InjectHelper.m:68:38
	movq	-120(%rbp), %rax
	.loc	1 68 47 is_stmt 0       ## /Users/tedzhang/Work/iTunesDecryptCore/DecryptCore/DecryptCore/InjectHelper.m:68:47
	subq	-72(%rbp), %rax
	.loc	1 68 61                 ## /Users/tedzhang/Work/iTunesDecryptCore/DecryptCore/DecryptCore/InjectHelper.m:68:61
	subq	$1, %rax
	.loc	1 68 28                 ## /Users/tedzhang/Work/iTunesDecryptCore/DecryptCore/DecryptCore/InjectHelper.m:68:28
	movq	%rax, -112(%rbp)
	.loc	1 69 37 is_stmt 1       ## /Users/tedzhang/Work/iTunesDecryptCore/DecryptCore/DecryptCore/InjectHelper.m:69:37
	movq	-80(%rbp), %rax
	.loc	1 69 30 is_stmt 0       ## /Users/tedzhang/Work/iTunesDecryptCore/DecryptCore/DecryptCore/InjectHelper.m:69:30
	movq	%rax, -120(%rbp)
	.loc	1 70 30 is_stmt 1       ## /Users/tedzhang/Work/iTunesDecryptCore/DecryptCore/DecryptCore/InjectHelper.m:70:30
	movq	-64(%rbp), %rax
	.loc	1 70 29 is_stmt 0       ## /Users/tedzhang/Work/iTunesDecryptCore/DecryptCore/DecryptCore/InjectHelper.m:70:29
	movq	L_OBJC_SELECTOR_REFERENCES_.18(%rip), %rsi
	movq	-120(%rbp), %rdx
	movq	-112(%rbp), %rcx
	movq	%rax, %rdi
	callq	*_objc_msgSend@GOTPCREL(%rip)
	.loc	1 70 27                 ## /Users/tedzhang/Work/iTunesDecryptCore/DecryptCore/DecryptCore/InjectHelper.m:70:27
	movq	%rax, %rdi
	callq	_objc_retainAutoreleasedReturnValue
	movq	-40(%rbp), %rcx
	movq	%rax, -40(%rbp)
	movq	%rcx, %rdi
	callq	*_objc_release@GOTPCREL(%rip)
Ltmp11:
LBB0_5:
	.loc	1 72 5 is_stmt 1        ## /Users/tedzhang/Work/iTunesDecryptCore/DecryptCore/DecryptCore/InjectHelper.m:72:5
	jmp	LBB0_6
Ltmp12:
LBB0_6:
	.loc	1 74 24                 ## /Users/tedzhang/Work/iTunesDecryptCore/DecryptCore/DecryptCore/InjectHelper.m:74:24
	movq	-40(%rbp), %rdi
	.loc	1 74 23 is_stmt 0       ## /Users/tedzhang/Work/iTunesDecryptCore/DecryptCore/DecryptCore/InjectHelper.m:74:23
	movq	L_OBJC_SELECTOR_REFERENCES_.22(%rip), %rsi
	leaq	L__unnamed_cfstring_.20(%rip), %rdx
	movq	_objc_msgSend@GOTPCREL(%rip), %rax
	callq	*%rax
	.loc	1 74 14                 ## /Users/tedzhang/Work/iTunesDecryptCore/DecryptCore/DecryptCore/InjectHelper.m:74:14
	movq	%rax, %rdi
	callq	_objc_retainAutoreleasedReturnValue
	movq	%rax, -128(%rbp)
	.loc	1 75 12 is_stmt 1       ## /Users/tedzhang/Work/iTunesDecryptCore/DecryptCore/DecryptCore/InjectHelper.m:75:12
	movq	-128(%rbp), %rdi
	movq	_objc_retain@GOTPCREL(%rip), %rax
	callq	*%rax
	xorl	%ecx, %ecx
	movl	%ecx, %edx
	leaq	-128(%rbp), %rdi
	.loc	1 76 1                  ## /Users/tedzhang/Work/iTunesDecryptCore/DecryptCore/DecryptCore/InjectHelper.m:76:1
	movq	%rdx, %rsi
	movq	%rax, -168(%rbp)        ## 8-byte Spill
	movq	%rdx, -176(%rbp)        ## 8-byte Spill
	callq	_objc_storeStrong
	leaq	-64(%rbp), %rdi
	movq	-176(%rbp), %rsi        ## 8-byte Reload
	callq	_objc_storeStrong
	leaq	-56(%rbp), %rdi
	movq	-176(%rbp), %rsi        ## 8-byte Reload
	callq	_objc_storeStrong
	leaq	-48(%rbp), %rdi
	movq	-176(%rbp), %rsi        ## 8-byte Reload
	callq	_objc_storeStrong
	leaq	-40(%rbp), %rdi
	movq	-176(%rbp), %rsi        ## 8-byte Reload
	callq	_objc_storeStrong
	leaq	-24(%rbp), %rdi
	movq	-176(%rbp), %rsi        ## 8-byte Reload
	callq	_objc_storeStrong
	movq	-168(%rbp), %rax        ## 8-byte Reload
	movq	%rax, %rdi
	addq	$176, %rsp
	popq	%rbp
	jmp	_objc_autoreleaseReturnValue ## TAILCALL
Ltmp13:
Lfunc_end0:
	.cfi_endproc
                                        ## -- End function
	.p2align	4, 0x90         ## -- Begin function +[InjectHelper isOnlyRecordMode]
"+[InjectHelper isOnlyRecordMode]":     ## @"\01+[InjectHelper isOnlyRecordMode]"
Lfunc_begin1:
	.loc	1 78 0                  ## /Users/tedzhang/Work/iTunesDecryptCore/DecryptCore/DecryptCore/InjectHelper.m:78:0
	.cfi_startproc
## %bb.0:
	pushq	%rbp
	.cfi_def_cfa_offset 16
	.cfi_offset %rbp, -16
	movq	%rsp, %rbp
	.cfi_def_cfa_register %rbp
	subq	$112, %rsp
	xorl	%eax, %eax
	movl	$24, %ecx
	movl	%ecx, %edx
	leaq	-48(%rbp), %r8
	movq	%rdi, -16(%rbp)
	movq	%rsi, -24(%rbp)
Ltmp14:
	##DEBUG_VALUE: +[InjectHelper isOnlyRecordMode]:OSVer <- [%r8+0]
	.loc	1 80 30 prologue_end    ## /Users/tedzhang/Work/iTunesDecryptCore/DecryptCore/DecryptCore/InjectHelper.m:80:30
	movq	%r8, %rdi
	movl	%eax, %esi
	callq	_memset
Ltmp15:
	.loc	1 81 31                 ## /Users/tedzhang/Work/iTunesDecryptCore/DecryptCore/DecryptCore/InjectHelper.m:81:31
	movq	L_OBJC_CLASSLIST_REFERENCES_$_.23(%rip), %rdx
	movq	L_OBJC_SELECTOR_REFERENCES_.25(%rip), %rsi
	movq	%rdx, %rdi
	callq	*_objc_msgSend@GOTPCREL(%rip)
	.loc	1 81 20 is_stmt 0       ## /Users/tedzhang/Work/iTunesDecryptCore/DecryptCore/DecryptCore/InjectHelper.m:81:20
	movq	%rax, %rdi
	callq	_objc_retainAutoreleasedReturnValue
	movq	%rax, -56(%rbp)
Ltmp16:
	.loc	1 82 18 is_stmt 1       ## /Users/tedzhang/Work/iTunesDecryptCore/DecryptCore/DecryptCore/InjectHelper.m:82:18
	cmpq	$0, -56(%rbp)
Ltmp17:
	.loc	1 82 9 is_stmt 0        ## /Users/tedzhang/Work/iTunesDecryptCore/DecryptCore/DecryptCore/InjectHelper.m:82:9
	je	LBB1_5
## %bb.1:
Ltmp18:
	.loc	1 83 18 is_stmt 1       ## /Users/tedzhang/Work/iTunesDecryptCore/DecryptCore/DecryptCore/InjectHelper.m:83:18
	movq	-56(%rbp), %rax
	.loc	1 83 17 is_stmt 0       ## /Users/tedzhang/Work/iTunesDecryptCore/DecryptCore/DecryptCore/InjectHelper.m:83:17
	movq	L_OBJC_SELECTOR_REFERENCES_.27(%rip), %rdx
	cmpq	$0, %rax
	movq	%rdx, -96(%rbp)         ## 8-byte Spill
	movq	%rax, -104(%rbp)        ## 8-byte Spill
	je	LBB1_3
## %bb.2:
	.loc	1 0 17                  ## /Users/tedzhang/Work/iTunesDecryptCore/DecryptCore/DecryptCore/InjectHelper.m:0:17
	leaq	-80(%rbp), %rdi
	.loc	1 83 17                 ## /Users/tedzhang/Work/iTunesDecryptCore/DecryptCore/DecryptCore/InjectHelper.m:83:17
	movq	-104(%rbp), %rsi        ## 8-byte Reload
	movq	-96(%rbp), %rdx         ## 8-byte Reload
	callq	_objc_msgSend_stret
	jmp	LBB1_4
LBB1_3:
	.loc	1 0 17                  ## /Users/tedzhang/Work/iTunesDecryptCore/DecryptCore/DecryptCore/InjectHelper.m:0:17
	xorl	%esi, %esi
	movl	$24, %eax
	movl	%eax, %edx
	leaq	-80(%rbp), %rcx
	.loc	1 83 17                 ## /Users/tedzhang/Work/iTunesDecryptCore/DecryptCore/DecryptCore/InjectHelper.m:83:17
	movq	%rcx, %rdi
	callq	_memset
LBB1_4:
	movq	-80(%rbp), %rax
	movq	%rax, -48(%rbp)
	movq	-72(%rbp), %rax
	movq	%rax, -40(%rbp)
	movq	-64(%rbp), %rax
	movq	%rax, -32(%rbp)
Ltmp19:
LBB1_5:
	.loc	1 86 28 is_stmt 1       ## /Users/tedzhang/Work/iTunesDecryptCore/DecryptCore/DecryptCore/InjectHelper.m:86:28
	cmpq	$10, -48(%rbp)
Ltmp20:
	.loc	1 86 9 is_stmt 0        ## /Users/tedzhang/Work/iTunesDecryptCore/DecryptCore/DecryptCore/InjectHelper.m:86:9
	je	LBB1_7
## %bb.6:
Ltmp21:
	.loc	1 87 9 is_stmt 1        ## /Users/tedzhang/Work/iTunesDecryptCore/DecryptCore/DecryptCore/InjectHelper.m:87:9
	movb	$0, -1(%rbp)
	movl	$1, -84(%rbp)
	jmp	LBB1_12
Ltmp22:
LBB1_7:
	.loc	1 90 28                 ## /Users/tedzhang/Work/iTunesDecryptCore/DecryptCore/DecryptCore/InjectHelper.m:90:28
	cmpq	$13, -40(%rbp)
	.loc	1 90 34 is_stmt 0       ## /Users/tedzhang/Work/iTunesDecryptCore/DecryptCore/DecryptCore/InjectHelper.m:90:34
	jg	LBB1_11
## %bb.8:
	.loc	1 90 57                 ## /Users/tedzhang/Work/iTunesDecryptCore/DecryptCore/DecryptCore/InjectHelper.m:90:57
	cmpq	$10, -48(%rbp)
	.loc	1 90 63                 ## /Users/tedzhang/Work/iTunesDecryptCore/DecryptCore/DecryptCore/InjectHelper.m:90:63
	je	LBB1_11
## %bb.9:
	.loc	1 90 85                 ## /Users/tedzhang/Work/iTunesDecryptCore/DecryptCore/DecryptCore/InjectHelper.m:90:85
	cmpq	$10, -40(%rbp)
Ltmp23:
	.loc	1 90 9                  ## /Users/tedzhang/Work/iTunesDecryptCore/DecryptCore/DecryptCore/InjectHelper.m:90:9
	je	LBB1_11
## %bb.10:
Ltmp24:
	.loc	1 91 9 is_stmt 1        ## /Users/tedzhang/Work/iTunesDecryptCore/DecryptCore/DecryptCore/InjectHelper.m:91:9
	movb	$0, -1(%rbp)
	movl	$1, -84(%rbp)
	jmp	LBB1_12
Ltmp25:
LBB1_11:
	.loc	1 94 5                  ## /Users/tedzhang/Work/iTunesDecryptCore/DecryptCore/DecryptCore/InjectHelper.m:94:5
	movb	$1, -1(%rbp)
	movl	$1, -84(%rbp)
LBB1_12:
	.loc	1 0 5 is_stmt 0         ## /Users/tedzhang/Work/iTunesDecryptCore/DecryptCore/DecryptCore/InjectHelper.m:0:5
	xorl	%eax, %eax
	movl	%eax, %esi
	leaq	-56(%rbp), %rcx
	.loc	1 95 1 is_stmt 1        ## /Users/tedzhang/Work/iTunesDecryptCore/DecryptCore/DecryptCore/InjectHelper.m:95:1
	movq	%rcx, %rdi
	callq	_objc_storeStrong
	movb	-1(%rbp), %dl
	andb	$1, %dl
	movzbl	%dl, %eax
	addq	$112, %rsp
	popq	%rbp
	retq
Ltmp26:
Lfunc_end1:
	.cfi_endproc
                                        ## -- End function
	.p2align	4, 0x90         ## -- Begin function +[InjectHelper ITunesHelperPath]
"+[InjectHelper ITunesHelperPath]":     ## @"\01+[InjectHelper ITunesHelperPath]"
Lfunc_begin2:
	.loc	1 97 0                  ## /Users/tedzhang/Work/iTunesDecryptCore/DecryptCore/DecryptCore/InjectHelper.m:97:0
	.cfi_startproc
## %bb.0:
	pushq	%rbp
	.cfi_def_cfa_offset 16
	.cfi_offset %rbp, -16
	movq	%rsp, %rbp
	.cfi_def_cfa_register %rbp
	subq	$32, %rsp
	leaq	L__unnamed_cfstring_.29(%rip), %rax
	movq	%rdi, -8(%rbp)
	movq	%rsi, -16(%rbp)
Ltmp27:
	.loc	1 98 15 prologue_end    ## /Users/tedzhang/Work/iTunesDecryptCore/DecryptCore/DecryptCore/InjectHelper.m:98:15
	movq	%rax, %rdi
	callq	*_objc_retain@GOTPCREL(%rip)
	movq	%rax, -24(%rbp)
Ltmp28:
	.loc	1 99 9                  ## /Users/tedzhang/Work/iTunesDecryptCore/DecryptCore/DecryptCore/InjectHelper.m:99:9
	cmpq	$0, _patchedITunesPath(%rip)
Ltmp29:
	.loc	1 99 9 is_stmt 0        ## /Users/tedzhang/Work/iTunesDecryptCore/DecryptCore/DecryptCore/InjectHelper.m:99:9
	je	LBB2_2
## %bb.1:
	.loc	1 0 9                   ## /Users/tedzhang/Work/iTunesDecryptCore/DecryptCore/DecryptCore/InjectHelper.m:0:9
	leaq	-24(%rbp), %rax
Ltmp30:
	.loc	1 100 16 is_stmt 1      ## /Users/tedzhang/Work/iTunesDecryptCore/DecryptCore/DecryptCore/InjectHelper.m:100:16
	movq	_patchedITunesPath(%rip), %rcx
	movq	%rax, %rdi
	movq	%rcx, %rsi
	callq	_objc_storeStrong
Ltmp31:
LBB2_2:
	.loc	1 102 12                ## /Users/tedzhang/Work/iTunesDecryptCore/DecryptCore/DecryptCore/InjectHelper.m:102:12
	movq	-24(%rbp), %rdi
	movq	_objc_retain@GOTPCREL(%rip), %rax
	callq	*%rax
	xorl	%ecx, %ecx
	movl	%ecx, %esi
	leaq	-24(%rbp), %rdi
	.loc	1 103 1                 ## /Users/tedzhang/Work/iTunesDecryptCore/DecryptCore/DecryptCore/InjectHelper.m:103:1
	movq	%rax, -32(%rbp)         ## 8-byte Spill
	callq	_objc_storeStrong
	movq	-32(%rbp), %rdi         ## 8-byte Reload
	addq	$32, %rsp
	popq	%rbp
	jmp	_objc_autoreleaseReturnValue ## TAILCALL
Ltmp32:
Lfunc_end2:
	.cfi_endproc
                                        ## -- End function
	.p2align	4, 0x90         ## -- Begin function +[InjectHelper isSIPEnabled]
"+[InjectHelper isSIPEnabled]":         ## @"\01+[InjectHelper isSIPEnabled]"
Lfunc_begin3:
	.loc	1 105 0                 ## /Users/tedzhang/Work/iTunesDecryptCore/DecryptCore/DecryptCore/InjectHelper.m:105:0
	.cfi_startproc
## %bb.0:
	pushq	%rbp
	.cfi_def_cfa_offset 16
	.cfi_offset %rbp, -16
	movq	%rsp, %rbp
	.cfi_def_cfa_register %rbp
	subq	$32, %rsp
	leaq	-20(%rbp), %rax
	movq	%rdi, -8(%rbp)
	movq	%rsi, -16(%rbp)
Ltmp33:
	##DEBUG_VALUE: +[InjectHelper isSIPEnabled]:config <- [%rax+0]
	.loc	1 110 18 prologue_end   ## /Users/tedzhang/Work/iTunesDecryptCore/DecryptCore/DecryptCore/InjectHelper.m:110:18
	movl	$0, -20(%rbp)
	.loc	1 111 5                 ## /Users/tedzhang/Work/iTunesDecryptCore/DecryptCore/DecryptCore/InjectHelper.m:111:5
	movq	%rax, %rdi
	callq	_csr_get_active_config
Ltmp34:
	.loc	1 0 5 is_stmt 0         ## /Users/tedzhang/Work/iTunesDecryptCore/DecryptCore/DecryptCore/InjectHelper.m:0:5
	movl	$1, %edi
	.loc	1 112 12 is_stmt 1      ## /Users/tedzhang/Work/iTunesDecryptCore/DecryptCore/DecryptCore/InjectHelper.m:112:12
	movl	%eax, -24(%rbp)         ## 4-byte Spill
	callq	_csr_check
	cmpl	$0, %eax
	setne	%cl
	.loc	1 112 5 is_stmt 0       ## /Users/tedzhang/Work/iTunesDecryptCore/DecryptCore/DecryptCore/InjectHelper.m:112:5
	andb	$1, %cl
	movzbl	%cl, %eax
	addq	$32, %rsp
	popq	%rbp
	retq
Ltmp35:
Lfunc_end3:
	.cfi_endproc
                                        ## -- End function
	.p2align	4, 0x90         ## -- Begin function +[InjectHelper injectorModeForBundle:]
"+[InjectHelper injectorModeForBundle:]": ## @"\01+[InjectHelper injectorModeForBundle:]"
Lfunc_begin4:
	.loc	1 115 0 is_stmt 1       ## /Users/tedzhang/Work/iTunesDecryptCore/DecryptCore/DecryptCore/InjectHelper.m:115:0
	.cfi_startproc
## %bb.0:
	pushq	%rbp
	.cfi_def_cfa_offset 16
	.cfi_offset %rbp, -16
	movq	%rsp, %rbp
	.cfi_def_cfa_register %rbp
	subq	$304, %rsp              ## imm = 0x130
	leaq	-48(%rbp), %rax
	movq	___stack_chk_guard@GOTPCREL(%rip), %rcx
	movq	(%rcx), %rcx
	movq	%rcx, -8(%rbp)
	movq	%rdi, -32(%rbp)
	movq	%rsi, -40(%rbp)
	movq	$0, -48(%rbp)
	movq	%rax, %rdi
	movq	%rdx, %rsi
	callq	_objc_storeStrong
Ltmp36:
	.loc	1 117 9 prologue_end    ## /Users/tedzhang/Work/iTunesDecryptCore/DecryptCore/DecryptCore/InjectHelper.m:117:9
	movl	$1, -52(%rbp)
	.loc	1 118 27                ## /Users/tedzhang/Work/iTunesDecryptCore/DecryptCore/DecryptCore/InjectHelper.m:118:27
	movq	-48(%rbp), %rax
	.loc	1 118 26 is_stmt 0      ## /Users/tedzhang/Work/iTunesDecryptCore/DecryptCore/DecryptCore/InjectHelper.m:118:26
	movq	L_OBJC_SELECTOR_REFERENCES_.31(%rip), %rsi
	movq	%rax, %rdi
	callq	*_objc_msgSend@GOTPCREL(%rip)
	.loc	1 118 15                ## /Users/tedzhang/Work/iTunesDecryptCore/DecryptCore/DecryptCore/InjectHelper.m:118:15
	movq	%rax, %rdi
	callq	_objc_retainAutoreleasedReturnValue
	leaq	L__unnamed_cfstring_.33(%rip), %rcx
	movq	%rax, -64(%rbp)
Ltmp37:
	.loc	1 119 10 is_stmt 1      ## /Users/tedzhang/Work/iTunesDecryptCore/DecryptCore/DecryptCore/InjectHelper.m:119:10
	movq	-64(%rbp), %rax
	.loc	1 119 9 is_stmt 0       ## /Users/tedzhang/Work/iTunesDecryptCore/DecryptCore/DecryptCore/InjectHelper.m:119:9
	movq	L_OBJC_SELECTOR_REFERENCES_.35(%rip), %rsi
	movq	%rax, %rdi
	movq	%rcx, %rdx
	callq	*_objc_msgSend@GOTPCREL(%rip)
	cmpb	$0, %al
Ltmp38:
	.loc	1 119 9                 ## /Users/tedzhang/Work/iTunesDecryptCore/DecryptCore/DecryptCore/InjectHelper.m:119:9
	je	LBB4_27
## %bb.1:
	.loc	1 0 9                   ## /Users/tedzhang/Work/iTunesDecryptCore/DecryptCore/DecryptCore/InjectHelper.m:0:9
	leaq	L__unnamed_cfstring_(%rip), %rax
Ltmp39:
	.loc	1 120 28 is_stmt 1      ## /Users/tedzhang/Work/iTunesDecryptCore/DecryptCore/DecryptCore/InjectHelper.m:120:28
	movq	L_OBJC_CLASSLIST_REFERENCES_$_(%rip), %rcx
	movq	L_OBJC_SELECTOR_REFERENCES_(%rip), %rsi
	movq	%rcx, %rdi
	movq	%rax, %rdx
	callq	*_objc_msgSend@GOTPCREL(%rip)
	movq	%rax, %rdi
	callq	_objc_retainAutoreleasedReturnValue
	movq	%rax, -72(%rbp)
	.loc	1 121 27                ## /Users/tedzhang/Work/iTunesDecryptCore/DecryptCore/DecryptCore/InjectHelper.m:121:27
	movq	L_OBJC_CLASSLIST_REFERENCES_$_.36(%rip), %rax
	.loc	1 121 56 is_stmt 0      ## /Users/tedzhang/Work/iTunesDecryptCore/DecryptCore/DecryptCore/InjectHelper.m:121:56
	movq	-72(%rbp), %rdx
	.loc	1 121 27                ## /Users/tedzhang/Work/iTunesDecryptCore/DecryptCore/DecryptCore/InjectHelper.m:121:27
	movq	L_OBJC_SELECTOR_REFERENCES_.38(%rip), %rsi
	movq	%rax, %rdi
	callq	*_objc_msgSend@GOTPCREL(%rip)
	.loc	1 121 18                ## /Users/tedzhang/Work/iTunesDecryptCore/DecryptCore/DecryptCore/InjectHelper.m:121:18
	movq	%rax, %rdi
	callq	_objc_retainAutoreleasedReturnValue
	leaq	L__unnamed_cfstring_.20(%rip), %rcx
	movq	%rax, -80(%rbp)
	.loc	1 122 36 is_stmt 1      ## /Users/tedzhang/Work/iTunesDecryptCore/DecryptCore/DecryptCore/InjectHelper.m:122:36
	movq	-80(%rbp), %rax
	.loc	1 122 35 is_stmt 0      ## /Users/tedzhang/Work/iTunesDecryptCore/DecryptCore/DecryptCore/InjectHelper.m:122:35
	movq	L_OBJC_SELECTOR_REFERENCES_.40(%rip), %rsi
	movq	%rax, %rdi
	movq	%rcx, %rdx
	callq	*_objc_msgSend@GOTPCREL(%rip)
	.loc	1 122 19                ## /Users/tedzhang/Work/iTunesDecryptCore/DecryptCore/DecryptCore/InjectHelper.m:122:19
	movq	%rax, %rdi
	callq	_objc_retainAutoreleasedReturnValue
	leaq	L__unnamed_cfstring_.42(%rip), %rcx
	movq	%rax, -88(%rbp)
	.loc	1 123 40 is_stmt 1      ## /Users/tedzhang/Work/iTunesDecryptCore/DecryptCore/DecryptCore/InjectHelper.m:123:40
	movq	-88(%rbp), %rsi
	.loc	1 123 9 is_stmt 0       ## /Users/tedzhang/Work/iTunesDecryptCore/DecryptCore/DecryptCore/InjectHelper.m:123:9
	movq	%rcx, %rdi
	movb	$0, %al
	callq	_NSLog
	xorl	%r8d, %r8d
	movl	%r8d, %edx
	.loc	1 124 22 is_stmt 1      ## /Users/tedzhang/Work/iTunesDecryptCore/DecryptCore/DecryptCore/InjectHelper.m:124:22
	movq	-80(%rbp), %rcx
	movq	L_OBJC_SELECTOR_REFERENCES_.44(%rip), %rsi
	movq	%rcx, %rdi
	callq	*_objc_msgSend@GOTPCREL(%rip)
	movq	%rax, %rdi
	callq	_objc_retainAutoreleasedReturnValue
	.loc	1 124 21 is_stmt 0      ## /Users/tedzhang/Work/iTunesDecryptCore/DecryptCore/DecryptCore/InjectHelper.m:124:21
	movq	L_OBJC_SELECTOR_REFERENCES_.46(%rip), %rsi
	movq	%rax, %rdi
	movq	%rax, -200(%rbp)        ## 8-byte Spill
	callq	*_objc_msgSend@GOTPCREL(%rip)
	movq	-200(%rbp), %rdi        ## 8-byte Reload
	movl	%eax, -204(%rbp)        ## 4-byte Spill
	callq	*_objc_release@GOTPCREL(%rip)
	movl	$1, %eax
	movl	%eax, %edx
	.loc	1 124 13                ## /Users/tedzhang/Work/iTunesDecryptCore/DecryptCore/DecryptCore/InjectHelper.m:124:13
	movl	-204(%rbp), %eax        ## 4-byte Reload
	movl	%eax, -92(%rbp)
	.loc	1 125 22 is_stmt 1      ## /Users/tedzhang/Work/iTunesDecryptCore/DecryptCore/DecryptCore/InjectHelper.m:125:22
	movq	-80(%rbp), %rcx
	movq	L_OBJC_SELECTOR_REFERENCES_.44(%rip), %rsi
	movq	%rcx, %rdi
	callq	*_objc_msgSend@GOTPCREL(%rip)
	movq	%rax, %rdi
	callq	_objc_retainAutoreleasedReturnValue
	.loc	1 125 21 is_stmt 0      ## /Users/tedzhang/Work/iTunesDecryptCore/DecryptCore/DecryptCore/InjectHelper.m:125:21
	movq	L_OBJC_SELECTOR_REFERENCES_.46(%rip), %rsi
	movq	%rax, %rdi
	movq	%rax, -216(%rbp)        ## 8-byte Spill
	callq	*_objc_msgSend@GOTPCREL(%rip)
	movq	-216(%rbp), %rdi        ## 8-byte Reload
	movl	%eax, -220(%rbp)        ## 4-byte Spill
	callq	*_objc_release@GOTPCREL(%rip)
	movl	$2, %eax
	movl	%eax, %edx
	.loc	1 125 13                ## /Users/tedzhang/Work/iTunesDecryptCore/DecryptCore/DecryptCore/InjectHelper.m:125:13
	movl	-220(%rbp), %eax        ## 4-byte Reload
	movl	%eax, -96(%rbp)
	.loc	1 126 22 is_stmt 1      ## /Users/tedzhang/Work/iTunesDecryptCore/DecryptCore/DecryptCore/InjectHelper.m:126:22
	movq	-80(%rbp), %rcx
	movq	L_OBJC_SELECTOR_REFERENCES_.44(%rip), %rsi
	movq	%rcx, %rdi
	callq	*_objc_msgSend@GOTPCREL(%rip)
	movq	%rax, %rdi
	callq	_objc_retainAutoreleasedReturnValue
	.loc	1 126 21 is_stmt 0      ## /Users/tedzhang/Work/iTunesDecryptCore/DecryptCore/DecryptCore/InjectHelper.m:126:21
	movq	L_OBJC_SELECTOR_REFERENCES_.46(%rip), %rsi
	movq	%rax, %rdi
	movq	%rax, -232(%rbp)        ## 8-byte Spill
	callq	*_objc_msgSend@GOTPCREL(%rip)
	movq	-232(%rbp), %rdi        ## 8-byte Reload
	movl	%eax, -236(%rbp)        ## 4-byte Spill
	callq	*_objc_release@GOTPCREL(%rip)
	movl	$3, %eax
	movl	%eax, %edx
	.loc	1 126 13                ## /Users/tedzhang/Work/iTunesDecryptCore/DecryptCore/DecryptCore/InjectHelper.m:126:13
	movl	-236(%rbp), %eax        ## 4-byte Reload
	movl	%eax, -100(%rbp)
	.loc	1 127 22 is_stmt 1      ## /Users/tedzhang/Work/iTunesDecryptCore/DecryptCore/DecryptCore/InjectHelper.m:127:22
	movq	-80(%rbp), %rcx
	movq	L_OBJC_SELECTOR_REFERENCES_.44(%rip), %rsi
	movq	%rcx, %rdi
	callq	*_objc_msgSend@GOTPCREL(%rip)
	movq	%rax, %rdi
	callq	_objc_retainAutoreleasedReturnValue
	.loc	1 127 21 is_stmt 0      ## /Users/tedzhang/Work/iTunesDecryptCore/DecryptCore/DecryptCore/InjectHelper.m:127:21
	movq	L_OBJC_SELECTOR_REFERENCES_.46(%rip), %rsi
	movq	%rax, %rdi
	movq	%rax, -248(%rbp)        ## 8-byte Spill
	callq	*_objc_msgSend@GOTPCREL(%rip)
	movq	-248(%rbp), %rdi        ## 8-byte Reload
	movl	%eax, -252(%rbp)        ## 4-byte Spill
	callq	*_objc_release@GOTPCREL(%rip)
	.loc	1 127 13                ## /Users/tedzhang/Work/iTunesDecryptCore/DecryptCore/DecryptCore/InjectHelper.m:127:13
	movl	-252(%rbp), %eax        ## 4-byte Reload
	movl	%eax, -104(%rbp)
	.loc	1 129 35 is_stmt 1      ## /Users/tedzhang/Work/iTunesDecryptCore/DecryptCore/DecryptCore/InjectHelper.m:129:35
	movq	L_OBJC_CLASSLIST_REFERENCES_$_.23(%rip), %rcx
	movq	L_OBJC_SELECTOR_REFERENCES_.25(%rip), %rsi
	movq	%rcx, %rdi
	callq	*_objc_msgSend@GOTPCREL(%rip)
	.loc	1 129 24 is_stmt 0      ## /Users/tedzhang/Work/iTunesDecryptCore/DecryptCore/DecryptCore/InjectHelper.m:129:24
	movq	%rax, %rdi
	callq	_objc_retainAutoreleasedReturnValue
	movq	%rax, -112(%rbp)
Ltmp40:
	.loc	1 130 22 is_stmt 1      ## /Users/tedzhang/Work/iTunesDecryptCore/DecryptCore/DecryptCore/InjectHelper.m:130:22
	cmpq	$0, -112(%rbp)
Ltmp41:
	.loc	1 130 13 is_stmt 0      ## /Users/tedzhang/Work/iTunesDecryptCore/DecryptCore/DecryptCore/InjectHelper.m:130:13
	je	LBB4_24
## %bb.2:
Ltmp42:
	.loc	1 131 47 is_stmt 1      ## /Users/tedzhang/Work/iTunesDecryptCore/DecryptCore/DecryptCore/InjectHelper.m:131:47
	movq	-112(%rbp), %rax
	.loc	1 131 46 is_stmt 0      ## /Users/tedzhang/Work/iTunesDecryptCore/DecryptCore/DecryptCore/InjectHelper.m:131:46
	movq	L_OBJC_SELECTOR_REFERENCES_.27(%rip), %rdx
	cmpq	$0, %rax
	movq	%rdx, -264(%rbp)        ## 8-byte Spill
	movq	%rax, -272(%rbp)        ## 8-byte Spill
	je	LBB4_4
## %bb.3:
	.loc	1 0 46                  ## /Users/tedzhang/Work/iTunesDecryptCore/DecryptCore/DecryptCore/InjectHelper.m:0:46
	leaq	-136(%rbp), %rdi
	.loc	1 131 46                ## /Users/tedzhang/Work/iTunesDecryptCore/DecryptCore/DecryptCore/InjectHelper.m:131:46
	movq	-272(%rbp), %rsi        ## 8-byte Reload
	movq	-264(%rbp), %rdx        ## 8-byte Reload
	callq	_objc_msgSend_stret
	jmp	LBB4_5
LBB4_4:
	.loc	1 0 46                  ## /Users/tedzhang/Work/iTunesDecryptCore/DecryptCore/DecryptCore/InjectHelper.m:0:46
	xorl	%esi, %esi
	movl	$24, %eax
	movl	%eax, %edx
	leaq	-136(%rbp), %rcx
	.loc	1 131 46                ## /Users/tedzhang/Work/iTunesDecryptCore/DecryptCore/DecryptCore/InjectHelper.m:131:46
	movq	%rcx, %rdi
	callq	_memset
LBB4_5:
Ltmp43:
	.loc	1 132 23 is_stmt 1      ## /Users/tedzhang/Work/iTunesDecryptCore/DecryptCore/DecryptCore/InjectHelper.m:132:23
	cmpl	$12, -92(%rbp)
	.loc	1 132 28 is_stmt 0      ## /Users/tedzhang/Work/iTunesDecryptCore/DecryptCore/DecryptCore/InjectHelper.m:132:28
	jl	LBB4_7
## %bb.6:
	.loc	1 132 37                ## /Users/tedzhang/Work/iTunesDecryptCore/DecryptCore/DecryptCore/InjectHelper.m:132:37
	cmpl	$6, -96(%rbp)
Ltmp44:
	.loc	1 132 17                ## /Users/tedzhang/Work/iTunesDecryptCore/DecryptCore/DecryptCore/InjectHelper.m:132:17
	jl	LBB4_23
LBB4_7:
Ltmp45:
	.loc	1 133 22 is_stmt 1      ## /Users/tedzhang/Work/iTunesDecryptCore/DecryptCore/DecryptCore/InjectHelper.m:133:22
	movl	$4, -52(%rbp)
Ltmp46:
	.loc	1 134 22                ## /Users/tedzhang/Work/iTunesDecryptCore/DecryptCore/DecryptCore/InjectHelper.m:134:22
	movq	L_OBJC_CLASSLIST_REFERENCES_$_.36(%rip), %rax
	movq	L_OBJC_SELECTOR_REFERENCES_.48(%rip), %rsi
	movq	%rax, %rdi
	callq	*_objc_msgSend@GOTPCREL(%rip)
Ltmp47:
	.loc	1 134 21 is_stmt 0      ## /Users/tedzhang/Work/iTunesDecryptCore/DecryptCore/DecryptCore/InjectHelper.m:134:21
	testb	$1, %al
	jne	LBB4_22
## %bb.8:
Ltmp48:
	.loc	1 135 26 is_stmt 1      ## /Users/tedzhang/Work/iTunesDecryptCore/DecryptCore/DecryptCore/InjectHelper.m:135:26
	movl	$2, -52(%rbp)
Ltmp49:
	.loc	1 136 44                ## /Users/tedzhang/Work/iTunesDecryptCore/DecryptCore/DecryptCore/InjectHelper.m:136:44
	cmpq	$10, -136(%rbp)
	.loc	1 136 50 is_stmt 0      ## /Users/tedzhang/Work/iTunesDecryptCore/DecryptCore/DecryptCore/InjectHelper.m:136:50
	jne	LBB4_21
## %bb.9:
	.loc	1 136 72                ## /Users/tedzhang/Work/iTunesDecryptCore/DecryptCore/DecryptCore/InjectHelper.m:136:72
	cmpq	$13, -128(%rbp)
Ltmp50:
	.loc	1 136 25                ## /Users/tedzhang/Work/iTunesDecryptCore/DecryptCore/DecryptCore/InjectHelper.m:136:25
	jne	LBB4_21
## %bb.10:
Ltmp51:
	.loc	1 137 30 is_stmt 1      ## /Users/tedzhang/Work/iTunesDecryptCore/DecryptCore/DecryptCore/InjectHelper.m:137:30
	movl	$0, -52(%rbp)
Ltmp52:
	.loc	1 138 30                ## /Users/tedzhang/Work/iTunesDecryptCore/DecryptCore/DecryptCore/InjectHelper.m:138:30
	movq	L_OBJC_CLASSLIST_REFERENCES_$_.36(%rip), %rax
	movq	L_OBJC_SELECTOR_REFERENCES_.50(%rip), %rsi
	movq	%rax, %rdi
	callq	*_objc_msgSend@GOTPCREL(%rip)
Ltmp53:
	.loc	1 138 29 is_stmt 0      ## /Users/tedzhang/Work/iTunesDecryptCore/DecryptCore/DecryptCore/InjectHelper.m:138:29
	testb	$1, %al
	jne	LBB4_20
## %bb.11:
	.loc	1 0 29                  ## /Users/tedzhang/Work/iTunesDecryptCore/DecryptCore/DecryptCore/InjectHelper.m:0:29
	leaq	L__unnamed_cfstring_.52(%rip), %rax
Ltmp54:
	.loc	1 139 39 is_stmt 1      ## /Users/tedzhang/Work/iTunesDecryptCore/DecryptCore/DecryptCore/InjectHelper.m:139:39
	movq	%rax, %rdi
	callq	*_objc_retain@GOTPCREL(%rip)
	xorl	%ecx, %ecx
	movl	%ecx, %edi
	movl	$1, %ecx
	movl	%ecx, %edx
	movq	_kCFTypeArrayCallBacks@GOTPCREL(%rip), %rcx
	leaq	-16(%rbp), %rsi
	movq	%rax, -144(%rbp)
Ltmp55:
	##DEBUG_VALUE: kext_ids <- [%rsi+0]
	.loc	1 142 65                ## /Users/tedzhang/Work/iTunesDecryptCore/DecryptCore/DecryptCore/InjectHelper.m:142:65
	movq	-144(%rbp), %rax
	.loc	1 142 41 is_stmt 0      ## /Users/tedzhang/Work/iTunesDecryptCore/DecryptCore/DecryptCore/InjectHelper.m:142:41
	movq	%rax, -16(%rbp)
	.loc	1 143 56 is_stmt 1      ## /Users/tedzhang/Work/iTunesDecryptCore/DecryptCore/DecryptCore/InjectHelper.m:143:56
	callq	_CFArrayCreate
Ltmp56:
	.loc	1 0 56 is_stmt 0        ## /Users/tedzhang/Work/iTunesDecryptCore/DecryptCore/DecryptCore/InjectHelper.m:0:56
	xorl	%r8d, %r8d
	movl	%r8d, %esi
	.loc	1 143 40                ## /Users/tedzhang/Work/iTunesDecryptCore/DecryptCore/DecryptCore/InjectHelper.m:143:40
	movq	%rax, -152(%rbp)
	.loc	1 144 88 is_stmt 1      ## /Users/tedzhang/Work/iTunesDecryptCore/DecryptCore/DecryptCore/InjectHelper.m:144:88
	movq	-152(%rbp), %rdi
	.loc	1 144 58 is_stmt 0      ## /Users/tedzhang/Work/iTunesDecryptCore/DecryptCore/DecryptCore/InjectHelper.m:144:58
	callq	_KextManagerCopyLoadedKextInfo
	.loc	1 144 45                ## /Users/tedzhang/Work/iTunesDecryptCore/DecryptCore/DecryptCore/InjectHelper.m:144:45
	movq	%rax, -160(%rbp)
	.loc	1 145 39 is_stmt 1      ## /Users/tedzhang/Work/iTunesDecryptCore/DecryptCore/DecryptCore/InjectHelper.m:145:39
	movq	-152(%rbp), %rax
	.loc	1 145 29 is_stmt 0      ## /Users/tedzhang/Work/iTunesDecryptCore/DecryptCore/DecryptCore/InjectHelper.m:145:29
	movq	%rax, %rdi
	callq	_CFRelease
	leaq	-168(%rbp), %rax
Ltmp57:
	##DEBUG_VALUE: cuda_driver_info <- [%rax+0]
	.loc	1 148 45 is_stmt 1      ## /Users/tedzhang/Work/iTunesDecryptCore/DecryptCore/DecryptCore/InjectHelper.m:148:45
	movq	$0, -168(%rbp)
Ltmp58:
	.loc	1 149 63                ## /Users/tedzhang/Work/iTunesDecryptCore/DecryptCore/DecryptCore/InjectHelper.m:149:63
	movq	-160(%rbp), %rdi
	.loc	1 149 97 is_stmt 0      ## /Users/tedzhang/Work/iTunesDecryptCore/DecryptCore/DecryptCore/InjectHelper.m:149:97
	movq	-144(%rbp), %rcx
	.loc	1 149 33                ## /Users/tedzhang/Work/iTunesDecryptCore/DecryptCore/DecryptCore/InjectHelper.m:149:33
	movq	%rcx, %rsi
	movq	%rax, %rdx
	callq	_CFDictionaryGetValueIfPresent
Ltmp59:
	cmpb	$0, %al
Ltmp60:
	.loc	1 149 33                ## /Users/tedzhang/Work/iTunesDecryptCore/DecryptCore/DecryptCore/InjectHelper.m:149:33
	je	LBB4_15
## %bb.12:
	.loc	1 0 33                  ## /Users/tedzhang/Work/iTunesDecryptCore/DecryptCore/DecryptCore/InjectHelper.m:0:33
	leaq	L__unnamed_cfstring_.54(%rip), %rax
Ltmp61:
	.loc	1 150 38 is_stmt 1      ## /Users/tedzhang/Work/iTunesDecryptCore/DecryptCore/DecryptCore/InjectHelper.m:150:38
	movl	$3, -52(%rbp)
	.loc	1 151 101               ## /Users/tedzhang/Work/iTunesDecryptCore/DecryptCore/DecryptCore/InjectHelper.m:151:101
	movq	-168(%rbp), %rdi
	.loc	1 151 80 is_stmt 0      ## /Users/tedzhang/Work/iTunesDecryptCore/DecryptCore/DecryptCore/InjectHelper.m:151:80
	movq	%rax, %rsi
	callq	_CFDictionaryGetValue
	.loc	1 151 48                ## /Users/tedzhang/Work/iTunesDecryptCore/DecryptCore/DecryptCore/InjectHelper.m:151:48
	movq	%rax, %rdi
	callq	_CFBooleanGetValue
	cmpb	$0, %al
	setne	%al
	.loc	1 151 38                ## /Users/tedzhang/Work/iTunesDecryptCore/DecryptCore/DecryptCore/InjectHelper.m:151:38
	andb	$1, %al
	movb	%al, -169(%rbp)
	.loc	1 152 37 is_stmt 1      ## /Users/tedzhang/Work/iTunesDecryptCore/DecryptCore/DecryptCore/InjectHelper.m:152:37
	testb	$1, -169(%rbp)
	jne	LBB4_14
## %bb.13:
	.loc	1 0 37 is_stmt 0        ## /Users/tedzhang/Work/iTunesDecryptCore/DecryptCore/DecryptCore/InjectHelper.m:0:37
	leaq	L__unnamed_cfstring_.56(%rip), %rax
Ltmp62:
	.loc	1 153 37 is_stmt 1      ## /Users/tedzhang/Work/iTunesDecryptCore/DecryptCore/DecryptCore/InjectHelper.m:153:37
	movq	%rax, %rdi
	movb	$0, %al
	callq	_NSLog
Ltmp63:
LBB4_14:
	.loc	1 155 29                ## /Users/tedzhang/Work/iTunesDecryptCore/DecryptCore/DecryptCore/InjectHelper.m:155:29
	jmp	LBB4_19
Ltmp64:
LBB4_15:
	.loc	1 0 29 is_stmt 0        ## /Users/tedzhang/Work/iTunesDecryptCore/DecryptCore/DecryptCore/InjectHelper.m:0:29
	leaq	L__unnamed_cfstring_.58(%rip), %rax
Ltmp65:
	.loc	1 156 33 is_stmt 1      ## /Users/tedzhang/Work/iTunesDecryptCore/DecryptCore/DecryptCore/InjectHelper.m:156:33
	movq	%rax, %rdi
	movb	$0, %al
	callq	_NSLog
	leaq	___block_literal_global(%rip), %rdi
	.loc	1 158 39                ## /Users/tedzhang/Work/iTunesDecryptCore/DecryptCore/DecryptCore/InjectHelper.m:158:39
	callq	_objc_retainBlock
	movq	%rax, -184(%rbp)
Ltmp66:
	.loc	1 176 37                ## /Users/tedzhang/Work/iTunesDecryptCore/DecryptCore/DecryptCore/InjectHelper.m:176:37
	movq	L_OBJC_CLASSLIST_REFERENCES_$_.36(%rip), %rax
	.loc	1 176 74 is_stmt 0      ## /Users/tedzhang/Work/iTunesDecryptCore/DecryptCore/DecryptCore/InjectHelper.m:176:74
	movq	-184(%rbp), %rdx
	.loc	1 176 37                ## /Users/tedzhang/Work/iTunesDecryptCore/DecryptCore/DecryptCore/InjectHelper.m:176:37
	movq	L_OBJC_SELECTOR_REFERENCES_.67(%rip), %rsi
	movq	%rax, %rdi
	callq	*_objc_msgSend@GOTPCREL(%rip)
Ltmp67:
	.loc	1 176 37                ## /Users/tedzhang/Work/iTunesDecryptCore/DecryptCore/DecryptCore/InjectHelper.m:176:37
	testb	$1, %al
	jne	LBB4_16
	jmp	LBB4_17
LBB4_16:
	.loc	1 0 37                  ## /Users/tedzhang/Work/iTunesDecryptCore/DecryptCore/DecryptCore/InjectHelper.m:0:37
	movl	$2, %edi
Ltmp68:
	.loc	1 177 42 is_stmt 1      ## /Users/tedzhang/Work/iTunesDecryptCore/DecryptCore/DecryptCore/InjectHelper.m:177:42
	movl	$3, -52(%rbp)
	.loc	1 178 37                ## /Users/tedzhang/Work/iTunesDecryptCore/DecryptCore/DecryptCore/InjectHelper.m:178:37
	callq	_sleep
	.loc	1 179 33                ## /Users/tedzhang/Work/iTunesDecryptCore/DecryptCore/DecryptCore/InjectHelper.m:179:33
	movl	%eax, -276(%rbp)        ## 4-byte Spill
	jmp	LBB4_18
Ltmp69:
LBB4_17:
	.loc	1 181 42                ## /Users/tedzhang/Work/iTunesDecryptCore/DecryptCore/DecryptCore/InjectHelper.m:181:42
	movl	$0, -52(%rbp)
Ltmp70:
LBB4_18:
	.loc	1 0 42 is_stmt 0        ## /Users/tedzhang/Work/iTunesDecryptCore/DecryptCore/DecryptCore/InjectHelper.m:0:42
	xorl	%eax, %eax
	movl	%eax, %esi
	leaq	-184(%rbp), %rcx
	.loc	1 183 29 is_stmt 1      ## /Users/tedzhang/Work/iTunesDecryptCore/DecryptCore/DecryptCore/InjectHelper.m:183:29
	movq	%rcx, %rdi
	callq	_objc_storeStrong
Ltmp71:
LBB4_19:
	.loc	1 184 39                ## /Users/tedzhang/Work/iTunesDecryptCore/DecryptCore/DecryptCore/InjectHelper.m:184:39
	movq	-160(%rbp), %rax
	.loc	1 184 29 is_stmt 0      ## /Users/tedzhang/Work/iTunesDecryptCore/DecryptCore/DecryptCore/InjectHelper.m:184:29
	movq	%rax, %rdi
	callq	_CFRelease
	xorl	%ecx, %ecx
	movl	%ecx, %esi
	leaq	-144(%rbp), %rax
	.loc	1 185 36 is_stmt 1      ## /Users/tedzhang/Work/iTunesDecryptCore/DecryptCore/DecryptCore/InjectHelper.m:185:36
	movl	-52(%rbp), %ecx
	.loc	1 185 29 is_stmt 0      ## /Users/tedzhang/Work/iTunesDecryptCore/DecryptCore/DecryptCore/InjectHelper.m:185:29
	movl	%ecx, -20(%rbp)
	movl	$1, -188(%rbp)
Ltmp72:
	.loc	1 186 25 is_stmt 1      ## /Users/tedzhang/Work/iTunesDecryptCore/DecryptCore/DecryptCore/InjectHelper.m:186:25
	movq	%rax, %rdi
	callq	_objc_storeStrong
	jmp	LBB4_25
Ltmp73:
LBB4_20:
	.loc	1 187 21                ## /Users/tedzhang/Work/iTunesDecryptCore/DecryptCore/DecryptCore/InjectHelper.m:187:21
	jmp	LBB4_21
Ltmp74:
LBB4_21:
	.loc	1 188 17                ## /Users/tedzhang/Work/iTunesDecryptCore/DecryptCore/DecryptCore/InjectHelper.m:188:17
	jmp	LBB4_22
Ltmp75:
LBB4_22:
	.loc	1 189 13                ## /Users/tedzhang/Work/iTunesDecryptCore/DecryptCore/DecryptCore/InjectHelper.m:189:13
	jmp	LBB4_23
Ltmp76:
LBB4_23:
	.loc	1 190 9                 ## /Users/tedzhang/Work/iTunesDecryptCore/DecryptCore/DecryptCore/InjectHelper.m:190:9
	jmp	LBB4_24
Ltmp77:
LBB4_24:
	.loc	1 191 5                 ## /Users/tedzhang/Work/iTunesDecryptCore/DecryptCore/DecryptCore/InjectHelper.m:191:5
	movl	$0, -188(%rbp)
LBB4_25:
	.loc	1 0 5 is_stmt 0         ## /Users/tedzhang/Work/iTunesDecryptCore/DecryptCore/DecryptCore/InjectHelper.m:0:5
	xorl	%eax, %eax
	movl	%eax, %ecx
	leaq	-112(%rbp), %rdi
	.loc	1 191 5                 ## /Users/tedzhang/Work/iTunesDecryptCore/DecryptCore/DecryptCore/InjectHelper.m:191:5
	movq	%rcx, %rsi
	movq	%rcx, -288(%rbp)        ## 8-byte Spill
	callq	_objc_storeStrong
	leaq	-88(%rbp), %rdi
	movq	-288(%rbp), %rsi        ## 8-byte Reload
	callq	_objc_storeStrong
	leaq	-80(%rbp), %rdi
	movq	-288(%rbp), %rsi        ## 8-byte Reload
	callq	_objc_storeStrong
	leaq	-72(%rbp), %rdi
	movq	-288(%rbp), %rsi        ## 8-byte Reload
	callq	_objc_storeStrong
	movl	-188(%rbp), %eax
	testl	%eax, %eax
	jne	LBB4_28
	jmp	LBB4_26
LBB4_26:
Ltmp78:
	.loc	1 191 5                 ## /Users/tedzhang/Work/iTunesDecryptCore/DecryptCore/DecryptCore/InjectHelper.m:191:5
	jmp	LBB4_27
Ltmp79:
LBB4_27:
	.loc	1 193 12 is_stmt 1      ## /Users/tedzhang/Work/iTunesDecryptCore/DecryptCore/DecryptCore/InjectHelper.m:193:12
	movl	-52(%rbp), %eax
	.loc	1 193 5 is_stmt 0       ## /Users/tedzhang/Work/iTunesDecryptCore/DecryptCore/DecryptCore/InjectHelper.m:193:5
	movl	%eax, -20(%rbp)
	movl	$1, -188(%rbp)
LBB4_28:
	.loc	1 0 5                   ## /Users/tedzhang/Work/iTunesDecryptCore/DecryptCore/DecryptCore/InjectHelper.m:0:5
	xorl	%eax, %eax
	movl	%eax, %esi
	leaq	-64(%rbp), %rcx
	.loc	1 194 1 is_stmt 1       ## /Users/tedzhang/Work/iTunesDecryptCore/DecryptCore/DecryptCore/InjectHelper.m:194:1
	movq	%rcx, %rdi
	callq	_objc_storeStrong
	xorl	%eax, %eax
	movl	%eax, %esi
	leaq	-48(%rbp), %rcx
	movq	%rcx, %rdi
	callq	_objc_storeStrong
	movl	-20(%rbp), %eax
	movq	___stack_chk_guard@GOTPCREL(%rip), %rcx
	movq	(%rcx), %rcx
	movq	-8(%rbp), %rsi
	cmpq	%rsi, %rcx
	movl	%eax, -292(%rbp)        ## 4-byte Spill
	jne	LBB4_30
## %bb.29:
	movl	-292(%rbp), %eax        ## 4-byte Reload
	addq	$304, %rsp              ## imm = 0x130
	popq	%rbp
	retq
LBB4_30:
	.loc	1 0 0 is_stmt 0         ## /Users/tedzhang/Work/iTunesDecryptCore/DecryptCore/DecryptCore/InjectHelper.m:0:0
	callq	___stack_chk_fail
	ud2
Ltmp80:
Lfunc_end4:
	.cfi_endproc
                                        ## -- End function
	.p2align	4, 0x90         ## -- Begin function __38+[InjectHelper injectorModeForBundle:]_block_invoke
"___38+[InjectHelper injectorModeForBundle:]_block_invoke": ## @"__38+[InjectHelper injectorModeForBundle:]_block_invoke"
Lfunc_begin5:
	.loc	1 158 0 is_stmt 1       ## /Users/tedzhang/Work/iTunesDecryptCore/DecryptCore/DecryptCore/InjectHelper.m:158:0
	.cfi_startproc
## %bb.0:
	pushq	%rbp
	.cfi_def_cfa_offset 16
	.cfi_offset %rbp, -16
	movq	%rsp, %rbp
	.cfi_def_cfa_register %rbp
	subq	$128, %rsp
	movq	___stack_chk_guard@GOTPCREL(%rip), %rax
	movq	(%rax), %rax
	movq	%rax, -8(%rbp)
	movq	%rdi, -72(%rbp)
	movq	%rsi, -80(%rbp)
	movq	%rdi, -88(%rbp)
Ltmp81:
	.loc	1 159 42 prologue_end   ## /Users/tedzhang/Work/iTunesDecryptCore/DecryptCore/DecryptCore/InjectHelper.m:159:42
	movb	$0, -89(%rbp)
	.loc	1 160 62                ## /Users/tedzhang/Work/iTunesDecryptCore/DecryptCore/DecryptCore/InjectHelper.m:160:62
	movq	_patchedKextPath(%rip), %rax
	.loc	1 160 61 is_stmt 0      ## /Users/tedzhang/Work/iTunesDecryptCore/DecryptCore/DecryptCore/InjectHelper.m:160:61
	movq	L_OBJC_SELECTOR_REFERENCES_.61(%rip), %rsi
	movq	%rax, %rdi
	callq	*_objc_msgSend@GOTPCREL(%rip)
	leaq	L_.str.64(%rip), %rsi
	xorl	%edx, %edx
	leaq	-112(%rbp), %r8
	leaq	-48(%rbp), %rcx
	leaq	L_.str.63(%rip), %rdi
	leaq	L_.str.62(%rip), %r9
	.loc	1 160 49                ## /Users/tedzhang/Work/iTunesDecryptCore/DecryptCore/DecryptCore/InjectHelper.m:160:49
	movq	%rax, -104(%rbp)
Ltmp82:
	##DEBUG_VALUE: chown_args <- [%rcx+0]
	.loc	1 161 71 is_stmt 1      ## /Users/tedzhang/Work/iTunesDecryptCore/DecryptCore/DecryptCore/InjectHelper.m:161:71
	movq	%r9, -48(%rbp)
	movq	%rdi, -40(%rbp)
	.loc	1 161 86 is_stmt 0      ## /Users/tedzhang/Work/iTunesDecryptCore/DecryptCore/DecryptCore/InjectHelper.m:161:86
	movq	-104(%rbp), %rax
	.loc	1 161 71                ## /Users/tedzhang/Work/iTunesDecryptCore/DecryptCore/DecryptCore/InjectHelper.m:161:71
	movq	%rax, -32(%rbp)
	movq	$0, -24(%rbp)
Ltmp83:
	##DEBUG_VALUE: pipe <- [%r8+0]
	.loc	1 162 43 is_stmt 1      ## /Users/tedzhang/Work/iTunesDecryptCore/DecryptCore/DecryptCore/InjectHelper.m:162:43
	movq	$0, -112(%rbp)
	.loc	1 165 81                ## /Users/tedzhang/Work/iTunesDecryptCore/DecryptCore/DecryptCore/InjectHelper.m:165:81
	movq	-80(%rbp), %rdi
	.loc	1 165 46 is_stmt 0      ## /Users/tedzhang/Work/iTunesDecryptCore/DecryptCore/DecryptCore/InjectHelper.m:165:46
	callq	_AuthorizationExecuteWithPrivileges
Ltmp84:
	.loc	1 165 44                ## /Users/tedzhang/Work/iTunesDecryptCore/DecryptCore/DecryptCore/InjectHelper.m:165:44
	movl	%eax, -116(%rbp)
Ltmp85:
	.loc	1 166 48 is_stmt 1      ## /Users/tedzhang/Work/iTunesDecryptCore/DecryptCore/DecryptCore/InjectHelper.m:166:48
	cmpl	$0, -116(%rbp)
Ltmp86:
	.loc	1 166 41 is_stmt 0      ## /Users/tedzhang/Work/iTunesDecryptCore/DecryptCore/DecryptCore/InjectHelper.m:166:41
	jne	LBB5_4
## %bb.1:
	.loc	1 0 41                  ## /Users/tedzhang/Work/iTunesDecryptCore/DecryptCore/DecryptCore/InjectHelper.m:0:41
	leaq	L_.str.65(%rip), %rsi
	xorl	%edx, %edx
	leaq	-112(%rbp), %r8
	leaq	-64(%rbp), %rcx
Ltmp87:
	##DEBUG_VALUE: kextload_args <- [%rcx+0]
	.loc	1 167 81 is_stmt 1      ## /Users/tedzhang/Work/iTunesDecryptCore/DecryptCore/DecryptCore/InjectHelper.m:167:81
	movq	-104(%rbp), %rax
	.loc	1 167 79 is_stmt 0      ## /Users/tedzhang/Work/iTunesDecryptCore/DecryptCore/DecryptCore/InjectHelper.m:167:79
	movq	%rax, -64(%rbp)
	movq	$0, -56(%rbp)
	.loc	1 168 85 is_stmt 1      ## /Users/tedzhang/Work/iTunesDecryptCore/DecryptCore/DecryptCore/InjectHelper.m:168:85
	movq	-80(%rbp), %rdi
	.loc	1 168 50 is_stmt 0      ## /Users/tedzhang/Work/iTunesDecryptCore/DecryptCore/DecryptCore/InjectHelper.m:168:50
	callq	_AuthorizationExecuteWithPrivileges
Ltmp88:
	.loc	1 168 48                ## /Users/tedzhang/Work/iTunesDecryptCore/DecryptCore/DecryptCore/InjectHelper.m:168:48
	movl	%eax, -116(%rbp)
Ltmp89:
	.loc	1 169 52 is_stmt 1      ## /Users/tedzhang/Work/iTunesDecryptCore/DecryptCore/DecryptCore/InjectHelper.m:169:52
	cmpl	$0, -116(%rbp)
Ltmp90:
	.loc	1 169 45 is_stmt 0      ## /Users/tedzhang/Work/iTunesDecryptCore/DecryptCore/DecryptCore/InjectHelper.m:169:45
	jne	LBB5_3
## %bb.2:
Ltmp91:
	.loc	1 170 50 is_stmt 1      ## /Users/tedzhang/Work/iTunesDecryptCore/DecryptCore/DecryptCore/InjectHelper.m:170:50
	movb	$1, -89(%rbp)
Ltmp92:
LBB5_3:
	.loc	1 172 37                ## /Users/tedzhang/Work/iTunesDecryptCore/DecryptCore/DecryptCore/InjectHelper.m:172:37
	jmp	LBB5_4
Ltmp93:
LBB5_4:
	.loc	1 173 44                ## /Users/tedzhang/Work/iTunesDecryptCore/DecryptCore/DecryptCore/InjectHelper.m:173:44
	movb	-89(%rbp), %al
	movq	___stack_chk_guard@GOTPCREL(%rip), %rcx
	movq	(%rcx), %rcx
	movq	-8(%rbp), %rdx
	cmpq	%rdx, %rcx
	movb	%al, -117(%rbp)         ## 1-byte Spill
	jne	LBB5_6
## %bb.5:
	.loc	1 173 37 is_stmt 0      ## /Users/tedzhang/Work/iTunesDecryptCore/DecryptCore/DecryptCore/InjectHelper.m:173:37
	movb	-117(%rbp), %al         ## 1-byte Reload
	andb	$1, %al
	movzbl	%al, %eax
	addq	$128, %rsp
	popq	%rbp
	retq
Ltmp94:
LBB5_6:
	.loc	1 0 0                   ## /Users/tedzhang/Work/iTunesDecryptCore/DecryptCore/DecryptCore/InjectHelper.m:0:0
	callq	___stack_chk_fail
	ud2
Ltmp95:
Lfunc_end5:
	.cfi_endproc
                                        ## -- End function
	.p2align	4, 0x90         ## -- Begin function +[InjectHelper doAuthorizedOperations:]
"+[InjectHelper doAuthorizedOperations:]": ## @"\01+[InjectHelper doAuthorizedOperations:]"
Lfunc_begin6:
	.loc	1 196 0 is_stmt 1       ## /Users/tedzhang/Work/iTunesDecryptCore/DecryptCore/DecryptCore/InjectHelper.m:196:0
	.cfi_startproc
## %bb.0:
	pushq	%rbp
	.cfi_def_cfa_offset 16
	.cfi_offset %rbp, -16
	movq	%rsp, %rbp
	.cfi_def_cfa_register %rbp
	subq	$128, %rsp
	leaq	-32(%rbp), %rax
	movq	%rdi, -16(%rbp)
	movq	%rsi, -24(%rbp)
	movq	$0, -32(%rbp)
	movq	%rax, %rdi
	movq	%rdx, %rsi
	callq	_objc_storeStrong
Ltmp96:
	.loc	1 198 10 prologue_end   ## /Users/tedzhang/Work/iTunesDecryptCore/DecryptCore/DecryptCore/InjectHelper.m:198:10
	movb	$0, -33(%rbp)
Ltmp97:
	.loc	1 201 9                 ## /Users/tedzhang/Work/iTunesDecryptCore/DecryptCore/DecryptCore/InjectHelper.m:201:9
	cmpq	$0, _myAuthorizationRef(%rip)
Ltmp98:
	.loc	1 201 9 is_stmt 0       ## /Users/tedzhang/Work/iTunesDecryptCore/DecryptCore/DecryptCore/InjectHelper.m:201:9
	je	LBB6_4
## %bb.1:
Ltmp99:
	.loc	1 202 14 is_stmt 1      ## /Users/tedzhang/Work/iTunesDecryptCore/DecryptCore/DecryptCore/InjectHelper.m:202:14
	cmpq	$0, -32(%rbp)
Ltmp100:
	.loc	1 202 13 is_stmt 0      ## /Users/tedzhang/Work/iTunesDecryptCore/DecryptCore/DecryptCore/InjectHelper.m:202:13
	jne	LBB6_3
## %bb.2:
Ltmp101:
	.loc	1 203 13 is_stmt 1      ## /Users/tedzhang/Work/iTunesDecryptCore/DecryptCore/DecryptCore/InjectHelper.m:203:13
	movb	$0, -1(%rbp)
	movl	$1, -44(%rbp)
	jmp	LBB6_10
Ltmp102:
LBB6_3:
	.loc	1 204 16                ## /Users/tedzhang/Work/iTunesDecryptCore/DecryptCore/DecryptCore/InjectHelper.m:204:16
	movq	-32(%rbp), %rax
	movq	%rax, %rcx
	.loc	1 204 23 is_stmt 0      ## /Users/tedzhang/Work/iTunesDecryptCore/DecryptCore/DecryptCore/InjectHelper.m:204:23
	movq	_myAuthorizationRef(%rip), %rsi
	.loc	1 204 16                ## /Users/tedzhang/Work/iTunesDecryptCore/DecryptCore/DecryptCore/InjectHelper.m:204:16
	movq	%rcx, %rdi
	callq	*16(%rax)
	.loc	1 204 9                 ## /Users/tedzhang/Work/iTunesDecryptCore/DecryptCore/DecryptCore/InjectHelper.m:204:9
	andb	$1, %al
	movb	%al, -1(%rbp)
	movl	$1, -44(%rbp)
	jmp	LBB6_10
Ltmp103:
LBB6_4:
	.loc	1 0 9                   ## /Users/tedzhang/Work/iTunesDecryptCore/DecryptCore/DecryptCore/InjectHelper.m:0:9
	xorl	%eax, %eax
	movl	%eax, %ecx
	xorl	%edx, %edx
	leaq	_myAuthorizationRef(%rip), %rsi
Ltmp104:
	.loc	1 207 9 is_stmt 1       ## /Users/tedzhang/Work/iTunesDecryptCore/DecryptCore/DecryptCore/InjectHelper.m:207:9
	movq	%rcx, %rdi
	movq	%rsi, -112(%rbp)        ## 8-byte Spill
	movq	%rcx, %rsi
	movq	-112(%rbp), %rcx        ## 8-byte Reload
	callq	_AuthorizationCreate
	cmpl	$0, %eax
Ltmp105:
	.loc	1 207 9 is_stmt 0       ## /Users/tedzhang/Work/iTunesDecryptCore/DecryptCore/DecryptCore/InjectHelper.m:207:9
	je	LBB6_6
## %bb.5:
	.loc	1 0 9                   ## /Users/tedzhang/Work/iTunesDecryptCore/DecryptCore/DecryptCore/InjectHelper.m:0:9
	xorl	%esi, %esi
Ltmp106:
	.loc	1 208 27 is_stmt 1      ## /Users/tedzhang/Work/iTunesDecryptCore/DecryptCore/DecryptCore/InjectHelper.m:208:27
	movq	_myAuthorizationRef(%rip), %rdi
	.loc	1 208 9 is_stmt 0       ## /Users/tedzhang/Work/iTunesDecryptCore/DecryptCore/DecryptCore/InjectHelper.m:208:9
	callq	_AuthorizationFree
	.loc	1 209 16 is_stmt 1      ## /Users/tedzhang/Work/iTunesDecryptCore/DecryptCore/DecryptCore/InjectHelper.m:209:16
	movb	-33(%rbp), %cl
	.loc	1 209 9 is_stmt 0       ## /Users/tedzhang/Work/iTunesDecryptCore/DecryptCore/DecryptCore/InjectHelper.m:209:9
	andb	$1, %cl
	movb	%cl, -1(%rbp)
	movl	$1, -44(%rbp)
	movl	%eax, -116(%rbp)        ## 4-byte Spill
	jmp	LBB6_10
Ltmp107:
LBB6_6:
	.loc	1 0 9                   ## /Users/tedzhang/Work/iTunesDecryptCore/DecryptCore/DecryptCore/InjectHelper.m:0:9
	leaq	-96(%rbp), %rsi
	xorl	%eax, %eax
	movl	%eax, %ecx
	leaq	-80(%rbp), %rdx
Ltmp108:
	##DEBUG_VALUE: +[InjectHelper doAuthorizedOperations:]:right <- [%rdx+0]
	.loc	1 212 23 is_stmt 1      ## /Users/tedzhang/Work/iTunesDecryptCore/DecryptCore/DecryptCore/InjectHelper.m:212:23
	movq	"l_doAuthorizedOperations:.right"(%rip), %rdi
	movq	%rdi, -80(%rbp)
	movq	"l_doAuthorizedOperations:.right"+8(%rip), %rdi
	movq	%rdi, -72(%rbp)
	movq	"l_doAuthorizedOperations:.right"+16(%rip), %rdi
	movq	%rdi, -64(%rbp)
	movq	"l_doAuthorizedOperations:.right"+24(%rip), %rdi
	movq	%rdi, -56(%rbp)
Ltmp109:
	##DEBUG_VALUE: +[InjectHelper doAuthorizedOperations:]:rights <- [%rsi+0]
	.loc	1 213 34                ## /Users/tedzhang/Work/iTunesDecryptCore/DecryptCore/DecryptCore/InjectHelper.m:213:34
	movl	$1, -96(%rbp)
	movq	%rdx, -88(%rbp)
	.loc	1 214 24                ## /Users/tedzhang/Work/iTunesDecryptCore/DecryptCore/DecryptCore/InjectHelper.m:214:24
	movl	$25, -100(%rbp)
	.loc	1 216 38                ## /Users/tedzhang/Work/iTunesDecryptCore/DecryptCore/DecryptCore/InjectHelper.m:216:38
	movq	_myAuthorizationRef(%rip), %rdi
	.loc	1 216 70 is_stmt 0      ## /Users/tedzhang/Work/iTunesDecryptCore/DecryptCore/DecryptCore/InjectHelper.m:216:70
	movl	-100(%rbp), %eax
	.loc	1 216 14                ## /Users/tedzhang/Work/iTunesDecryptCore/DecryptCore/DecryptCore/InjectHelper.m:216:14
	movq	%rcx, %rdx
Ltmp110:
	movq	%rcx, -128(%rbp)        ## 8-byte Spill
	movl	%eax, %ecx
	movq	-128(%rbp), %r8         ## 8-byte Reload
	callq	_AuthorizationCopyRights
Ltmp111:
	.loc	1 216 12                ## /Users/tedzhang/Work/iTunesDecryptCore/DecryptCore/DecryptCore/InjectHelper.m:216:12
	movl	%eax, -40(%rbp)
Ltmp112:
	.loc	1 217 9 is_stmt 1       ## /Users/tedzhang/Work/iTunesDecryptCore/DecryptCore/DecryptCore/InjectHelper.m:217:9
	cmpq	$0, -32(%rbp)
	.loc	1 217 16 is_stmt 0      ## /Users/tedzhang/Work/iTunesDecryptCore/DecryptCore/DecryptCore/InjectHelper.m:217:16
	je	LBB6_9
## %bb.7:
	.loc	1 217 26                ## /Users/tedzhang/Work/iTunesDecryptCore/DecryptCore/DecryptCore/InjectHelper.m:217:26
	cmpl	$0, -40(%rbp)
Ltmp113:
	.loc	1 217 9                 ## /Users/tedzhang/Work/iTunesDecryptCore/DecryptCore/DecryptCore/InjectHelper.m:217:9
	je	LBB6_9
## %bb.8:
Ltmp114:
	.loc	1 218 16 is_stmt 1      ## /Users/tedzhang/Work/iTunesDecryptCore/DecryptCore/DecryptCore/InjectHelper.m:218:16
	movq	-32(%rbp), %rax
	movq	%rax, %rcx
	.loc	1 218 23 is_stmt 0      ## /Users/tedzhang/Work/iTunesDecryptCore/DecryptCore/DecryptCore/InjectHelper.m:218:23
	movq	_myAuthorizationRef(%rip), %rsi
	.loc	1 218 16                ## /Users/tedzhang/Work/iTunesDecryptCore/DecryptCore/DecryptCore/InjectHelper.m:218:16
	movq	%rcx, %rdi
	callq	*16(%rax)
	.loc	1 218 9                 ## /Users/tedzhang/Work/iTunesDecryptCore/DecryptCore/DecryptCore/InjectHelper.m:218:9
	andb	$1, %al
	movb	%al, -1(%rbp)
	movl	$1, -44(%rbp)
	jmp	LBB6_10
Ltmp115:
LBB6_9:
	.loc	1 221 12 is_stmt 1      ## /Users/tedzhang/Work/iTunesDecryptCore/DecryptCore/DecryptCore/InjectHelper.m:221:12
	movb	-33(%rbp), %al
	.loc	1 221 5 is_stmt 0       ## /Users/tedzhang/Work/iTunesDecryptCore/DecryptCore/DecryptCore/InjectHelper.m:221:5
	andb	$1, %al
	movb	%al, -1(%rbp)
	movl	$1, -44(%rbp)
LBB6_10:
	.loc	1 0 5                   ## /Users/tedzhang/Work/iTunesDecryptCore/DecryptCore/DecryptCore/InjectHelper.m:0:5
	xorl	%eax, %eax
	movl	%eax, %esi
	leaq	-32(%rbp), %rcx
	.loc	1 222 1 is_stmt 1       ## /Users/tedzhang/Work/iTunesDecryptCore/DecryptCore/DecryptCore/InjectHelper.m:222:1
	movq	%rcx, %rdi
	callq	_objc_storeStrong
	movb	-1(%rbp), %dl
	andb	$1, %dl
	movzbl	%dl, %eax
	addq	$128, %rsp
	popq	%rbp
	retq
Ltmp116:
Lfunc_end6:
	.cfi_endproc
                                        ## -- End function
	.p2align	4, 0x90         ## -- Begin function +[InjectHelper fixUpdaterPath:]
"+[InjectHelper fixUpdaterPath:]":      ## @"\01+[InjectHelper fixUpdaterPath:]"
Lfunc_begin7:
	.loc	1 224 0                 ## /Users/tedzhang/Work/iTunesDecryptCore/DecryptCore/DecryptCore/InjectHelper.m:224:0
	.cfi_startproc
## %bb.0:
	pushq	%rbp
	.cfi_def_cfa_offset 16
	.cfi_offset %rbp, -16
	movq	%rsp, %rbp
	.cfi_def_cfa_register %rbp
	subq	$400, %rsp              ## imm = 0x190
	leaq	-168(%rbp), %rax
	movq	___stack_chk_guard@GOTPCREL(%rip), %rcx
	movq	(%rcx), %rcx
	movq	%rcx, -8(%rbp)
	movq	%rdi, -152(%rbp)
	movq	%rsi, -160(%rbp)
	movq	$0, -168(%rbp)
	movq	%rax, %rdi
	movq	%rdx, %rsi
	callq	_objc_storeStrong
Ltmp117:
	.loc	1 226 34 prologue_end   ## /Users/tedzhang/Work/iTunesDecryptCore/DecryptCore/DecryptCore/InjectHelper.m:226:34
	movq	L_OBJC_CLASSLIST_REFERENCES_$_.69(%rip), %rax
	movq	L_OBJC_SELECTOR_REFERENCES_.71(%rip), %rsi
	movq	%rax, %rdi
	callq	*_objc_msgSend@GOTPCREL(%rip)
	.loc	1 226 20 is_stmt 0      ## /Users/tedzhang/Work/iTunesDecryptCore/DecryptCore/DecryptCore/InjectHelper.m:226:20
	movq	%rax, %rdi
	callq	_objc_retainAutoreleasedReturnValue
	movq	%rax, -176(%rbp)
	.loc	1 227 28 is_stmt 1      ## /Users/tedzhang/Work/iTunesDecryptCore/DecryptCore/DecryptCore/InjectHelper.m:227:28
	movq	-168(%rbp), %rax
	.loc	1 227 27 is_stmt 0      ## /Users/tedzhang/Work/iTunesDecryptCore/DecryptCore/DecryptCore/InjectHelper.m:227:27
	movq	L_OBJC_SELECTOR_REFERENCES_.73(%rip), %rsi
	movq	%rax, %rdi
	callq	*_objc_msgSend@GOTPCREL(%rip)
	.loc	1 227 15                ## /Users/tedzhang/Work/iTunesDecryptCore/DecryptCore/DecryptCore/InjectHelper.m:227:15
	movq	%rax, %rdi
	callq	_objc_retainAutoreleasedReturnValue
	xorl	%r8d, %r8d
	movl	%r8d, %ecx
	movq	%rax, -184(%rbp)
	.loc	1 228 31 is_stmt 1      ## /Users/tedzhang/Work/iTunesDecryptCore/DecryptCore/DecryptCore/InjectHelper.m:228:31
	movq	-176(%rbp), %rax
	.loc	1 228 66 is_stmt 0      ## /Users/tedzhang/Work/iTunesDecryptCore/DecryptCore/DecryptCore/InjectHelper.m:228:66
	movq	-168(%rbp), %rdx
	.loc	1 228 30                ## /Users/tedzhang/Work/iTunesDecryptCore/DecryptCore/DecryptCore/InjectHelper.m:228:30
	movq	L_OBJC_SELECTOR_REFERENCES_.75(%rip), %rsi
	movq	%rax, %rdi
	callq	*_objc_msgSend@GOTPCREL(%rip)
	.loc	1 228 19                ## /Users/tedzhang/Work/iTunesDecryptCore/DecryptCore/DecryptCore/InjectHelper.m:228:19
	movq	%rax, %rdi
	callq	_objc_retainAutoreleasedReturnValue
	movq	%rax, -192(%rbp)
Ltmp118:
	.loc	1 229 10 is_stmt 1      ## /Users/tedzhang/Work/iTunesDecryptCore/DecryptCore/DecryptCore/InjectHelper.m:229:10
	movq	-192(%rbp), %rax
	.loc	1 229 9 is_stmt 0       ## /Users/tedzhang/Work/iTunesDecryptCore/DecryptCore/DecryptCore/InjectHelper.m:229:9
	movq	L_OBJC_SELECTOR_REFERENCES_.77(%rip), %rsi
	movq	%rax, %rdi
	callq	*_objc_msgSend@GOTPCREL(%rip)
	.loc	1 229 29                ## /Users/tedzhang/Work/iTunesDecryptCore/DecryptCore/DecryptCore/InjectHelper.m:229:29
	cmpq	$819199, %rax           ## imm = 0xC7FFF
Ltmp119:
	.loc	1 229 9                 ## /Users/tedzhang/Work/iTunesDecryptCore/DecryptCore/DecryptCore/InjectHelper.m:229:9
	jbe	LBB7_2
## %bb.1:
Ltmp120:
	.loc	1 230 16 is_stmt 1      ## /Users/tedzhang/Work/iTunesDecryptCore/DecryptCore/DecryptCore/InjectHelper.m:230:16
	movq	-168(%rbp), %rax
	movq	%rax, %rdi
	callq	*_objc_retain@GOTPCREL(%rip)
	.loc	1 230 9 is_stmt 0       ## /Users/tedzhang/Work/iTunesDecryptCore/DecryptCore/DecryptCore/InjectHelper.m:230:9
	movq	%rax, -144(%rbp)
	movl	$1, -196(%rbp)
	jmp	LBB7_22
Ltmp121:
LBB7_2:
	.loc	1 0 9                   ## /Users/tedzhang/Work/iTunesDecryptCore/DecryptCore/DecryptCore/InjectHelper.m:0:9
	xorl	%eax, %eax
	movl	%eax, %ecx
	.loc	1 233 24 is_stmt 1      ## /Users/tedzhang/Work/iTunesDecryptCore/DecryptCore/DecryptCore/InjectHelper.m:233:24
	movq	-176(%rbp), %rdx
	.loc	1 233 62 is_stmt 0      ## /Users/tedzhang/Work/iTunesDecryptCore/DecryptCore/DecryptCore/InjectHelper.m:233:62
	movq	-184(%rbp), %rsi
	.loc	1 233 23                ## /Users/tedzhang/Work/iTunesDecryptCore/DecryptCore/DecryptCore/InjectHelper.m:233:23
	movq	L_OBJC_SELECTOR_REFERENCES_.79(%rip), %rdi
	movq	%rdi, -304(%rbp)        ## 8-byte Spill
	movq	%rdx, %rdi
	movq	-304(%rbp), %rdx        ## 8-byte Reload
	movq	%rsi, -312(%rbp)        ## 8-byte Spill
	movq	%rdx, %rsi
	movq	-312(%rbp), %rdx        ## 8-byte Reload
	callq	*_objc_msgSend@GOTPCREL(%rip)
	.loc	1 233 14                ## /Users/tedzhang/Work/iTunesDecryptCore/DecryptCore/DecryptCore/InjectHelper.m:233:14
	movq	%rax, %rdi
	callq	_objc_retainAutoreleasedReturnValue
	xorl	%esi, %esi
	movl	$64, %r8d
	movl	%r8d, %edx
	leaq	-280(%rbp), %rcx
	movq	%rax, -208(%rbp)
	.loc	1 234 5 is_stmt 1       ## /Users/tedzhang/Work/iTunesDecryptCore/DecryptCore/DecryptCore/InjectHelper.m:234:5
	movq	%rcx, %rdi
	callq	_memset
	movq	-208(%rbp), %rax
	movq	%rax, %rdi
	callq	*_objc_retain@GOTPCREL(%rip)
	leaq	-280(%rbp), %rdx
	leaq	-136(%rbp), %rcx
	movl	$16, %esi
	movl	%esi, %r8d
	movq	L_OBJC_SELECTOR_REFERENCES_.81(%rip), %rsi
	movq	%rax, %rdi
	movq	%rax, -320(%rbp)        ## 8-byte Spill
	callq	*_objc_msgSend@GOTPCREL(%rip)
	cmpq	$0, %rax
	movq	%rax, -328(%rbp)        ## 8-byte Spill
	je	LBB7_17
## %bb.3:
	.loc	1 0 5 is_stmt 0         ## /Users/tedzhang/Work/iTunesDecryptCore/DecryptCore/DecryptCore/InjectHelper.m:0:5
	xorl	%eax, %eax
	movl	%eax, %ecx
	leaq	-280(%rbp), %rdx
	.loc	1 234 5                 ## /Users/tedzhang/Work/iTunesDecryptCore/DecryptCore/DecryptCore/InjectHelper.m:234:5
	addq	$16, %rdx
	movq	-264(%rbp), %rsi
	movq	(%rsi), %rsi
	movq	-328(%rbp), %rdi        ## 8-byte Reload
	movq	%rsi, -336(%rbp)        ## 8-byte Spill
	movq	%rdx, -344(%rbp)        ## 8-byte Spill
	movq	%rcx, -352(%rbp)        ## 8-byte Spill
	movq	%rdi, -360(%rbp)        ## 8-byte Spill
LBB7_4:                                 ## =>This Inner Loop Header: Depth=1
	movq	-360(%rbp), %rax        ## 8-byte Reload
	movq	-352(%rbp), %rcx        ## 8-byte Reload
	movq	-344(%rbp), %rdx        ## 8-byte Reload
	movq	(%rdx), %rsi
	movq	-336(%rbp), %rdi        ## 8-byte Reload
	cmpq	%rdi, (%rsi)
	movq	%rax, -368(%rbp)        ## 8-byte Spill
	movq	%rcx, -376(%rbp)        ## 8-byte Spill
	je	LBB7_6
## %bb.5:                               ##   in Loop: Header=BB7_4 Depth=1
	movq	-320(%rbp), %rax        ## 8-byte Reload
	movq	%rax, %rdi
	callq	_objc_enumerationMutation
LBB7_6:                                 ##   in Loop: Header=BB7_4 Depth=1
	movq	-272(%rbp), %rax
	movq	-376(%rbp), %rcx        ## 8-byte Reload
	movq	(%rax,%rcx,8), %rax
	movq	%rax, -216(%rbp)
Ltmp122:
	.loc	1 235 31 is_stmt 1      ## /Users/tedzhang/Work/iTunesDecryptCore/DecryptCore/DecryptCore/InjectHelper.m:235:31
	movq	-184(%rbp), %rax
	.loc	1 235 72 is_stmt 0      ## /Users/tedzhang/Work/iTunesDecryptCore/DecryptCore/DecryptCore/InjectHelper.m:235:72
	movq	-216(%rbp), %rdx
	.loc	1 235 30                ## /Users/tedzhang/Work/iTunesDecryptCore/DecryptCore/DecryptCore/InjectHelper.m:235:30
	movq	L_OBJC_SELECTOR_REFERENCES_.83(%rip), %rsi
	movq	%rax, %rdi
	callq	*_objc_msgSend@GOTPCREL(%rip)
	.loc	1 235 19                ## /Users/tedzhang/Work/iTunesDecryptCore/DecryptCore/DecryptCore/InjectHelper.m:235:19
	movq	%rax, %rdi
	callq	_objc_retainAutoreleasedReturnValue
	xorl	%r8d, %r8d
	movl	%r8d, %ecx
	movq	%rax, -288(%rbp)
	.loc	1 236 31 is_stmt 1      ## /Users/tedzhang/Work/iTunesDecryptCore/DecryptCore/DecryptCore/InjectHelper.m:236:31
	movq	-176(%rbp), %rax
	.loc	1 236 66 is_stmt 0      ## /Users/tedzhang/Work/iTunesDecryptCore/DecryptCore/DecryptCore/InjectHelper.m:236:66
	movq	-288(%rbp), %rdx
	.loc	1 236 30                ## /Users/tedzhang/Work/iTunesDecryptCore/DecryptCore/DecryptCore/InjectHelper.m:236:30
	movq	L_OBJC_SELECTOR_REFERENCES_.75(%rip), %rsi
	movq	%rax, %rdi
	callq	*_objc_msgSend@GOTPCREL(%rip)
	.loc	1 236 23                ## /Users/tedzhang/Work/iTunesDecryptCore/DecryptCore/DecryptCore/InjectHelper.m:236:23
	movq	%rax, %rdi
	callq	_objc_retainAutoreleasedReturnValue
	movq	%rax, -296(%rbp)
Ltmp123:
	.loc	1 237 14 is_stmt 1      ## /Users/tedzhang/Work/iTunesDecryptCore/DecryptCore/DecryptCore/InjectHelper.m:237:14
	movq	-296(%rbp), %rax
	.loc	1 237 13 is_stmt 0      ## /Users/tedzhang/Work/iTunesDecryptCore/DecryptCore/DecryptCore/InjectHelper.m:237:13
	movq	L_OBJC_SELECTOR_REFERENCES_.77(%rip), %rsi
	movq	%rax, %rdi
	callq	*_objc_msgSend@GOTPCREL(%rip)
	.loc	1 237 29                ## /Users/tedzhang/Work/iTunesDecryptCore/DecryptCore/DecryptCore/InjectHelper.m:237:29
	cmpq	$819201, %rax           ## imm = 0xC8001
Ltmp124:
	.loc	1 237 13                ## /Users/tedzhang/Work/iTunesDecryptCore/DecryptCore/DecryptCore/InjectHelper.m:237:13
	jb	LBB7_12
## %bb.7:                               ##   in Loop: Header=BB7_4 Depth=1
	.loc	1 0 13                  ## /Users/tedzhang/Work/iTunesDecryptCore/DecryptCore/DecryptCore/InjectHelper.m:0:13
	leaq	L__unnamed_cfstring_.85(%rip), %rax
Ltmp125:
	.loc	1 238 18 is_stmt 1      ## /Users/tedzhang/Work/iTunesDecryptCore/DecryptCore/DecryptCore/InjectHelper.m:238:18
	movq	-216(%rbp), %rdi
	.loc	1 238 17 is_stmt 0      ## /Users/tedzhang/Work/iTunesDecryptCore/DecryptCore/DecryptCore/InjectHelper.m:238:17
	movq	L_OBJC_SELECTOR_REFERENCES_.35(%rip), %rsi
	movq	%rax, %rdx
	callq	*_objc_msgSend@GOTPCREL(%rip)
	cmpb	$0, %al
Ltmp126:
	.loc	1 238 17                ## /Users/tedzhang/Work/iTunesDecryptCore/DecryptCore/DecryptCore/InjectHelper.m:238:17
	je	LBB7_9
## %bb.8:                               ##   in Loop: Header=BB7_4 Depth=1
Ltmp127:
	.loc	1 239 24 is_stmt 1      ## /Users/tedzhang/Work/iTunesDecryptCore/DecryptCore/DecryptCore/InjectHelper.m:239:24
	movq	-288(%rbp), %rax
	movq	%rax, %rdi
	callq	*_objc_retain@GOTPCREL(%rip)
	.loc	1 239 17 is_stmt 0      ## /Users/tedzhang/Work/iTunesDecryptCore/DecryptCore/DecryptCore/InjectHelper.m:239:17
	movq	%rax, -144(%rbp)
	movl	$1, -196(%rbp)
	jmp	LBB7_13
Ltmp128:
LBB7_9:                                 ##   in Loop: Header=BB7_4 Depth=1
	.loc	1 0 17                  ## /Users/tedzhang/Work/iTunesDecryptCore/DecryptCore/DecryptCore/InjectHelper.m:0:17
	leaq	L__unnamed_cfstring_.87(%rip), %rax
Ltmp129:
	.loc	1 241 18 is_stmt 1      ## /Users/tedzhang/Work/iTunesDecryptCore/DecryptCore/DecryptCore/InjectHelper.m:241:18
	movq	-216(%rbp), %rdi
	.loc	1 241 17 is_stmt 0      ## /Users/tedzhang/Work/iTunesDecryptCore/DecryptCore/DecryptCore/InjectHelper.m:241:17
	movq	L_OBJC_SELECTOR_REFERENCES_.35(%rip), %rsi
	movq	%rax, %rdx
	callq	*_objc_msgSend@GOTPCREL(%rip)
	cmpb	$0, %al
Ltmp130:
	.loc	1 241 17                ## /Users/tedzhang/Work/iTunesDecryptCore/DecryptCore/DecryptCore/InjectHelper.m:241:17
	je	LBB7_11
## %bb.10:                              ##   in Loop: Header=BB7_4 Depth=1
Ltmp131:
	.loc	1 242 24 is_stmt 1      ## /Users/tedzhang/Work/iTunesDecryptCore/DecryptCore/DecryptCore/InjectHelper.m:242:24
	movq	-288(%rbp), %rax
	movq	%rax, %rdi
	callq	*_objc_retain@GOTPCREL(%rip)
	.loc	1 242 17 is_stmt 0      ## /Users/tedzhang/Work/iTunesDecryptCore/DecryptCore/DecryptCore/InjectHelper.m:242:17
	movq	%rax, -144(%rbp)
	movl	$1, -196(%rbp)
	jmp	LBB7_13
Ltmp132:
LBB7_11:                                ##   in Loop: Header=BB7_4 Depth=1
	.loc	1 244 9 is_stmt 1       ## /Users/tedzhang/Work/iTunesDecryptCore/DecryptCore/DecryptCore/InjectHelper.m:244:9
	jmp	LBB7_12
Ltmp133:
LBB7_12:                                ##   in Loop: Header=BB7_4 Depth=1
	.loc	1 245 5                 ## /Users/tedzhang/Work/iTunesDecryptCore/DecryptCore/DecryptCore/InjectHelper.m:245:5
	movl	$0, -196(%rbp)
LBB7_13:                                ##   in Loop: Header=BB7_4 Depth=1
	.loc	1 0 5 is_stmt 0         ## /Users/tedzhang/Work/iTunesDecryptCore/DecryptCore/DecryptCore/InjectHelper.m:0:5
	xorl	%eax, %eax
	movl	%eax, %ecx
	leaq	-296(%rbp), %rdi
	.loc	1 245 5                 ## /Users/tedzhang/Work/iTunesDecryptCore/DecryptCore/DecryptCore/InjectHelper.m:245:5
	movq	%rcx, %rsi
	movq	%rcx, -384(%rbp)        ## 8-byte Spill
	callq	_objc_storeStrong
	leaq	-288(%rbp), %rdi
	movq	-384(%rbp), %rsi        ## 8-byte Reload
	callq	_objc_storeStrong
	movl	-196(%rbp), %eax
	testl	%eax, %eax
	jne	LBB7_18
	jmp	LBB7_14
LBB7_14:                                ##   in Loop: Header=BB7_4 Depth=1
Ltmp134:
	.loc	1 245 5                 ## /Users/tedzhang/Work/iTunesDecryptCore/DecryptCore/DecryptCore/InjectHelper.m:245:5
	jmp	LBB7_15
LBB7_15:                                ##   in Loop: Header=BB7_4 Depth=1
	movq	-376(%rbp), %rax        ## 8-byte Reload
	addq	$1, %rax
	movq	-368(%rbp), %rcx        ## 8-byte Reload
	cmpq	%rcx, %rax
	movq	%rcx, -360(%rbp)        ## 8-byte Spill
	movq	%rax, -352(%rbp)        ## 8-byte Spill
	jb	LBB7_4
## %bb.16:                              ##   in Loop: Header=BB7_4 Depth=1
	.loc	1 0 5                   ## /Users/tedzhang/Work/iTunesDecryptCore/DecryptCore/DecryptCore/InjectHelper.m:0:5
	leaq	-280(%rbp), %rdx
	leaq	-136(%rbp), %rcx
	movl	$16, %eax
	movl	%eax, %r8d
	.loc	1 245 5                 ## /Users/tedzhang/Work/iTunesDecryptCore/DecryptCore/DecryptCore/InjectHelper.m:245:5
	movq	L_OBJC_SELECTOR_REFERENCES_.81(%rip), %rsi
	movq	-320(%rbp), %rdi        ## 8-byte Reload
	callq	*_objc_msgSend@GOTPCREL(%rip)
	xorl	%r9d, %r9d
	movl	%r9d, %ecx
	cmpq	$0, %rax
	movq	%rcx, -352(%rbp)        ## 8-byte Spill
	movq	%rax, -360(%rbp)        ## 8-byte Spill
	jne	LBB7_4
Ltmp135:
LBB7_17:
	.loc	1 245 5                 ## /Users/tedzhang/Work/iTunesDecryptCore/DecryptCore/DecryptCore/InjectHelper.m:245:5
	movl	$0, -196(%rbp)
LBB7_18:
	movq	_objc_release@GOTPCREL(%rip), %rax
	movq	-320(%rbp), %rdi        ## 8-byte Reload
	callq	*%rax
	movl	-196(%rbp), %ecx
	testl	%ecx, %ecx
	jne	LBB7_21
	jmp	LBB7_19
LBB7_19:
	jmp	LBB7_20
Ltmp136:
LBB7_20:
	.loc	1 246 12 is_stmt 1      ## /Users/tedzhang/Work/iTunesDecryptCore/DecryptCore/DecryptCore/InjectHelper.m:246:12
	movq	-168(%rbp), %rax
	movq	%rax, %rdi
	callq	*_objc_retain@GOTPCREL(%rip)
	.loc	1 246 5 is_stmt 0       ## /Users/tedzhang/Work/iTunesDecryptCore/DecryptCore/DecryptCore/InjectHelper.m:246:5
	movq	%rax, -144(%rbp)
	movl	$1, -196(%rbp)
LBB7_21:
	.loc	1 0 5                   ## /Users/tedzhang/Work/iTunesDecryptCore/DecryptCore/DecryptCore/InjectHelper.m:0:5
	xorl	%eax, %eax
	movl	%eax, %esi
	leaq	-208(%rbp), %rcx
	.loc	1 247 1 is_stmt 1       ## /Users/tedzhang/Work/iTunesDecryptCore/DecryptCore/DecryptCore/InjectHelper.m:247:1
	movq	%rcx, %rdi
	callq	_objc_storeStrong
LBB7_22:
	.loc	1 0 1 is_stmt 0         ## /Users/tedzhang/Work/iTunesDecryptCore/DecryptCore/DecryptCore/InjectHelper.m:0:1
	xorl	%eax, %eax
	movl	%eax, %esi
	leaq	-192(%rbp), %rcx
	.loc	1 247 1                 ## /Users/tedzhang/Work/iTunesDecryptCore/DecryptCore/DecryptCore/InjectHelper.m:247:1
	movq	%rcx, %rdi
	callq	_objc_storeStrong
	xorl	%eax, %eax
	movl	%eax, %esi
	leaq	-184(%rbp), %rcx
	movq	%rcx, %rdi
	callq	_objc_storeStrong
	xorl	%eax, %eax
	movl	%eax, %esi
	leaq	-176(%rbp), %rcx
	movq	%rcx, %rdi
	callq	_objc_storeStrong
	xorl	%eax, %eax
	movl	%eax, %esi
	leaq	-168(%rbp), %rcx
	movq	%rcx, %rdi
	callq	_objc_storeStrong
	movq	-144(%rbp), %rcx
	movq	%rcx, %rdi
	callq	_objc_autoreleaseReturnValue
	movq	___stack_chk_guard@GOTPCREL(%rip), %rcx
	movq	(%rcx), %rcx
	movq	-8(%rbp), %rsi
	cmpq	%rsi, %rcx
	movq	%rax, -392(%rbp)        ## 8-byte Spill
	jne	LBB7_24
## %bb.23:
	movq	-392(%rbp), %rax        ## 8-byte Reload
	addq	$400, %rsp              ## imm = 0x190
	popq	%rbp
	retq
LBB7_24:
	.loc	1 0 0                   ## /Users/tedzhang/Work/iTunesDecryptCore/DecryptCore/DecryptCore/InjectHelper.m:0:0
	callq	___stack_chk_fail
	ud2
Ltmp137:
Lfunc_end7:
	.cfi_endproc
                                        ## -- End function
	.p2align	4, 0x90         ## -- Begin function +[InjectHelper initialize]
"+[InjectHelper initialize]":           ## @"\01+[InjectHelper initialize]"
Lfunc_begin8:
	.loc	1 249 0 is_stmt 1       ## /Users/tedzhang/Work/iTunesDecryptCore/DecryptCore/DecryptCore/InjectHelper.m:249:0
	.cfi_startproc
## %bb.0:
	pushq	%rbp
	.cfi_def_cfa_offset 16
	.cfi_offset %rbp, -16
	movq	%rsp, %rbp
	.cfi_def_cfa_register %rbp
	subq	$240, %rsp
	movq	___stack_chk_guard@GOTPCREL(%rip), %rax
	movq	(%rax), %rax
	movq	%rax, -8(%rbp)
	movq	%rdi, -48(%rbp)
	movq	%rsi, -56(%rbp)
Ltmp138:
	.loc	1 250 24 prologue_end   ## /Users/tedzhang/Work/iTunesDecryptCore/DecryptCore/DecryptCore/InjectHelper.m:250:24
	movq	L_OBJC_CLASSLIST_REFERENCES_$_(%rip), %rax
	.loc	1 250 49 is_stmt 0      ## /Users/tedzhang/Work/iTunesDecryptCore/DecryptCore/DecryptCore/InjectHelper.m:250:49
	movq	L_OBJC_CLASSLIST_REFERENCES_$_.36(%rip), %rsi
	movq	L_OBJC_SELECTOR_REFERENCES_.89(%rip), %rdi
	movq	%rdi, -168(%rbp)        ## 8-byte Spill
	movq	%rsi, %rdi
	movq	-168(%rbp), %rsi        ## 8-byte Reload
	movq	%rax, -176(%rbp)        ## 8-byte Spill
	callq	*_objc_msgSend@GOTPCREL(%rip)
	.loc	1 250 24                ## /Users/tedzhang/Work/iTunesDecryptCore/DecryptCore/DecryptCore/InjectHelper.m:250:24
	movq	L_OBJC_SELECTOR_REFERENCES_.91(%rip), %rsi
	movq	-176(%rbp), %rdi        ## 8-byte Reload
	movq	%rax, %rdx
	callq	*_objc_msgSend@GOTPCREL(%rip)
	.loc	1 250 15                ## /Users/tedzhang/Work/iTunesDecryptCore/DecryptCore/DecryptCore/InjectHelper.m:250:15
	movq	%rax, %rdi
	callq	_objc_retainAutoreleasedReturnValue
	leaq	L__unnamed_cfstring_.93(%rip), %rdx
	xorl	%ecx, %ecx
                                        ## kill: def %rcx killed %ecx
	movq	%rax, -64(%rbp)
	.loc	1 251 30 is_stmt 1      ## /Users/tedzhang/Work/iTunesDecryptCore/DecryptCore/DecryptCore/InjectHelper.m:251:30
	movq	-64(%rbp), %rax
	.loc	1 251 29 is_stmt 0      ## /Users/tedzhang/Work/iTunesDecryptCore/DecryptCore/DecryptCore/InjectHelper.m:251:29
	movq	L_OBJC_SELECTOR_REFERENCES_.95(%rip), %rsi
	movq	%rax, %rdi
	callq	*_objc_msgSend@GOTPCREL(%rip)
	.loc	1 251 15                ## /Users/tedzhang/Work/iTunesDecryptCore/DecryptCore/DecryptCore/InjectHelper.m:251:15
	movq	%rax, %rdi
	callq	_objc_retainAutoreleasedReturnValue
	movq	%rax, -72(%rbp)
	.loc	1 252 34 is_stmt 1      ## /Users/tedzhang/Work/iTunesDecryptCore/DecryptCore/DecryptCore/InjectHelper.m:252:34
	movq	L_OBJC_CLASSLIST_REFERENCES_$_.69(%rip), %rax
	movq	L_OBJC_SELECTOR_REFERENCES_.71(%rip), %rsi
	movq	%rax, %rdi
	callq	*_objc_msgSend@GOTPCREL(%rip)
	.loc	1 252 20 is_stmt 0      ## /Users/tedzhang/Work/iTunesDecryptCore/DecryptCore/DecryptCore/InjectHelper.m:252:20
	movq	%rax, %rdi
	callq	_objc_retainAutoreleasedReturnValue
	movq	%rax, -80(%rbp)
	.loc	1 253 15 is_stmt 1      ## /Users/tedzhang/Work/iTunesDecryptCore/DecryptCore/DecryptCore/InjectHelper.m:253:15
	movq	$0, -88(%rbp)
Ltmp139:
	.loc	1 255 10                ## /Users/tedzhang/Work/iTunesDecryptCore/DecryptCore/DecryptCore/InjectHelper.m:255:10
	movq	-80(%rbp), %rax
	.loc	1 255 39 is_stmt 0      ## /Users/tedzhang/Work/iTunesDecryptCore/DecryptCore/DecryptCore/InjectHelper.m:255:39
	movq	-72(%rbp), %rdx
	.loc	1 255 9                 ## /Users/tedzhang/Work/iTunesDecryptCore/DecryptCore/DecryptCore/InjectHelper.m:255:9
	movq	L_OBJC_SELECTOR_REFERENCES_.97(%rip), %rsi
	movq	%rax, %rdi
	callq	*_objc_msgSend@GOTPCREL(%rip)
	cmpb	$0, %al
Ltmp140:
	.loc	1 255 9                 ## /Users/tedzhang/Work/iTunesDecryptCore/DecryptCore/DecryptCore/InjectHelper.m:255:9
	je	LBB8_13
## %bb.1:
	.loc	1 0 9                   ## /Users/tedzhang/Work/iTunesDecryptCore/DecryptCore/DecryptCore/InjectHelper.m:0:9
	movl	$14, %eax
	movl	%eax, %edi
	movl	$1, %eax
	movl	%eax, %esi
	movl	$1, %edx
Ltmp141:
	.loc	1 256 28 is_stmt 1      ## /Users/tedzhang/Work/iTunesDecryptCore/DecryptCore/DecryptCore/InjectHelper.m:256:28
	callq	_NSSearchPathForDirectoriesInDomains
	.loc	1 256 18 is_stmt 0      ## /Users/tedzhang/Work/iTunesDecryptCore/DecryptCore/DecryptCore/InjectHelper.m:256:18
	movq	%rax, %rdi
	callq	_objc_retainAutoreleasedReturnValue
	movq	%rax, -96(%rbp)
	.loc	1 257 32 is_stmt 1      ## /Users/tedzhang/Work/iTunesDecryptCore/DecryptCore/DecryptCore/InjectHelper.m:257:32
	movq	L_OBJC_CLASSLIST_REFERENCES_$_(%rip), %rax
	movq	L_OBJC_SELECTOR_REFERENCES_.99(%rip), %rsi
	movq	%rax, %rdi
	callq	*_objc_msgSend@GOTPCREL(%rip)
	.loc	1 257 19 is_stmt 0      ## /Users/tedzhang/Work/iTunesDecryptCore/DecryptCore/DecryptCore/InjectHelper.m:257:19
	movq	%rax, %rdi
	callq	_objc_retainAutoreleasedReturnValue
	movq	_kCFBundleNameKey@GOTPCREL(%rip), %rsi
	movq	%rax, -104(%rbp)
	.loc	1 258 33 is_stmt 1      ## /Users/tedzhang/Work/iTunesDecryptCore/DecryptCore/DecryptCore/InjectHelper.m:258:33
	movq	-104(%rbp), %rax
	.loc	1 258 82 is_stmt 0      ## /Users/tedzhang/Work/iTunesDecryptCore/DecryptCore/DecryptCore/InjectHelper.m:258:82
	movq	(%rsi), %rsi
	.loc	1 258 32                ## /Users/tedzhang/Work/iTunesDecryptCore/DecryptCore/DecryptCore/InjectHelper.m:258:32
	movq	L_OBJC_SELECTOR_REFERENCES_.101(%rip), %rdi
	movq	%rdi, -184(%rbp)        ## 8-byte Spill
	movq	%rax, %rdi
	movq	-184(%rbp), %rax        ## 8-byte Reload
	movq	%rsi, -192(%rbp)        ## 8-byte Spill
	movq	%rax, %rsi
	movq	-192(%rbp), %rdx        ## 8-byte Reload
	callq	*_objc_msgSend@GOTPCREL(%rip)
	.loc	1 258 19                ## /Users/tedzhang/Work/iTunesDecryptCore/DecryptCore/DecryptCore/InjectHelper.m:258:19
	movq	%rax, %rdi
	callq	_objc_retainAutoreleasedReturnValue
	movq	%rax, -112(%rbp)
Ltmp142:
	.loc	1 260 14 is_stmt 1      ## /Users/tedzhang/Work/iTunesDecryptCore/DecryptCore/DecryptCore/InjectHelper.m:260:14
	movq	-96(%rbp), %rax
	.loc	1 260 13 is_stmt 0      ## /Users/tedzhang/Work/iTunesDecryptCore/DecryptCore/DecryptCore/InjectHelper.m:260:13
	movq	L_OBJC_SELECTOR_REFERENCES_.103(%rip), %rsi
	movq	%rax, %rdi
	callq	*_objc_msgSend@GOTPCREL(%rip)
	cmpq	$0, %rax
Ltmp143:
	.loc	1 260 13                ## /Users/tedzhang/Work/iTunesDecryptCore/DecryptCore/DecryptCore/InjectHelper.m:260:13
	je	LBB8_3
## %bb.2:
	.loc	1 0 13                  ## /Users/tedzhang/Work/iTunesDecryptCore/DecryptCore/DecryptCore/InjectHelper.m:0:13
	xorl	%eax, %eax
	movl	%eax, %edx
Ltmp144:
	.loc	1 261 31 is_stmt 1      ## /Users/tedzhang/Work/iTunesDecryptCore/DecryptCore/DecryptCore/InjectHelper.m:261:31
	movq	-96(%rbp), %rcx
	.loc	1 261 30 is_stmt 0      ## /Users/tedzhang/Work/iTunesDecryptCore/DecryptCore/DecryptCore/InjectHelper.m:261:30
	movq	L_OBJC_SELECTOR_REFERENCES_.105(%rip), %rsi
	movq	%rcx, %rdi
	callq	*_objc_msgSend@GOTPCREL(%rip)
	.loc	1 261 23                ## /Users/tedzhang/Work/iTunesDecryptCore/DecryptCore/DecryptCore/InjectHelper.m:261:23
	movq	%rax, %rdi
	callq	_objc_retainAutoreleasedReturnValue
	movq	%rax, -120(%rbp)
	.loc	1 262 25 is_stmt 1      ## /Users/tedzhang/Work/iTunesDecryptCore/DecryptCore/DecryptCore/InjectHelper.m:262:25
	movq	-120(%rbp), %rax
	.loc	1 262 61 is_stmt 0      ## /Users/tedzhang/Work/iTunesDecryptCore/DecryptCore/DecryptCore/InjectHelper.m:262:61
	movq	-112(%rbp), %rdx
	.loc	1 262 24                ## /Users/tedzhang/Work/iTunesDecryptCore/DecryptCore/DecryptCore/InjectHelper.m:262:24
	movq	L_OBJC_SELECTOR_REFERENCES_.83(%rip), %rsi
	movq	%rax, %rdi
	callq	*_objc_msgSend@GOTPCREL(%rip)
	.loc	1 262 22                ## /Users/tedzhang/Work/iTunesDecryptCore/DecryptCore/DecryptCore/InjectHelper.m:262:22
	movq	%rax, %rdi
	callq	_objc_retainAutoreleasedReturnValue
	movq	-88(%rbp), %rcx
	movq	%rax, -88(%rbp)
	movq	%rcx, %rdi
	callq	*_objc_release@GOTPCREL(%rip)
	xorl	%r8d, %r8d
	movl	%r8d, %esi
	leaq	-120(%rbp), %rax
Ltmp145:
	.loc	1 263 9 is_stmt 1       ## /Users/tedzhang/Work/iTunesDecryptCore/DecryptCore/DecryptCore/InjectHelper.m:263:9
	movq	%rax, %rdi
	callq	_objc_storeStrong
Ltmp146:
	.loc	1 263 9 is_stmt 0       ## /Users/tedzhang/Work/iTunesDecryptCore/DecryptCore/DecryptCore/InjectHelper.m:263:9
	jmp	LBB8_4
Ltmp147:
LBB8_3:
	.loc	1 265 24 is_stmt 1      ## /Users/tedzhang/Work/iTunesDecryptCore/DecryptCore/DecryptCore/InjectHelper.m:265:24
	callq	_NSTemporaryDirectory
	.loc	1 265 22 is_stmt 0      ## /Users/tedzhang/Work/iTunesDecryptCore/DecryptCore/DecryptCore/InjectHelper.m:265:22
	movq	%rax, %rdi
	callq	_objc_retainAutoreleasedReturnValue
	movq	-88(%rbp), %rdi
	movq	%rax, -88(%rbp)
	callq	*_objc_release@GOTPCREL(%rip)
Ltmp148:
LBB8_4:
	.loc	1 268 15 is_stmt 1      ## /Users/tedzhang/Work/iTunesDecryptCore/DecryptCore/DecryptCore/InjectHelper.m:268:15
	movq	-80(%rbp), %rax
	.loc	1 268 44 is_stmt 0      ## /Users/tedzhang/Work/iTunesDecryptCore/DecryptCore/DecryptCore/InjectHelper.m:268:44
	movq	-88(%rbp), %rdx
	.loc	1 268 14                ## /Users/tedzhang/Work/iTunesDecryptCore/DecryptCore/DecryptCore/InjectHelper.m:268:14
	movq	L_OBJC_SELECTOR_REFERENCES_.97(%rip), %rsi
	movq	%rax, %rdi
	callq	*_objc_msgSend@GOTPCREL(%rip)
	cmpb	$0, %al
Ltmp149:
	.loc	1 268 13                ## /Users/tedzhang/Work/iTunesDecryptCore/DecryptCore/DecryptCore/InjectHelper.m:268:13
	jne	LBB8_6
## %bb.5:
	.loc	1 0 13                  ## /Users/tedzhang/Work/iTunesDecryptCore/DecryptCore/DecryptCore/InjectHelper.m:0:13
	movl	$1, %ecx
	xorl	%eax, %eax
	movl	%eax, %edx
Ltmp150:
	.loc	1 269 14 is_stmt 1      ## /Users/tedzhang/Work/iTunesDecryptCore/DecryptCore/DecryptCore/InjectHelper.m:269:14
	movq	-80(%rbp), %rsi
	.loc	1 269 48 is_stmt 0      ## /Users/tedzhang/Work/iTunesDecryptCore/DecryptCore/DecryptCore/InjectHelper.m:269:48
	movq	-88(%rbp), %rdi
	.loc	1 269 13                ## /Users/tedzhang/Work/iTunesDecryptCore/DecryptCore/DecryptCore/InjectHelper.m:269:13
	movq	L_OBJC_SELECTOR_REFERENCES_.107(%rip), %r8
	movq	%rdi, -200(%rbp)        ## 8-byte Spill
	movq	%rsi, %rdi
	movq	%r8, %rsi
	movq	-200(%rbp), %r8         ## 8-byte Reload
	movq	%rdx, -208(%rbp)        ## 8-byte Spill
	movq	%r8, %rdx
	movq	-208(%rbp), %r8         ## 8-byte Reload
	movq	-208(%rbp), %r9         ## 8-byte Reload
	callq	*_objc_msgSend@GOTPCREL(%rip)
	movb	%al, -209(%rbp)         ## 1-byte Spill
Ltmp151:
LBB8_6:
	.loc	1 0 13                  ## /Users/tedzhang/Work/iTunesDecryptCore/DecryptCore/DecryptCore/InjectHelper.m:0:13
	movl	$4, %eax
	movl	%eax, %ecx
	leaq	-40(%rbp), %rdx
	leaq	L__unnamed_cfstring_.111(%rip), %rsi
	leaq	L__unnamed_cfstring_.109(%rip), %rdi
	.loc	1 272 24 is_stmt 1      ## /Users/tedzhang/Work/iTunesDecryptCore/DecryptCore/DecryptCore/InjectHelper.m:272:24
	movq	%rdi, -40(%rbp)
	.loc	1 272 33 is_stmt 0      ## /Users/tedzhang/Work/iTunesDecryptCore/DecryptCore/DecryptCore/InjectHelper.m:272:33
	movq	-72(%rbp), %rdi
	.loc	1 272 24                ## /Users/tedzhang/Work/iTunesDecryptCore/DecryptCore/DecryptCore/InjectHelper.m:272:24
	movq	%rdi, -32(%rbp)
	movq	%rsi, -24(%rbp)
	.loc	1 272 53                ## /Users/tedzhang/Work/iTunesDecryptCore/DecryptCore/DecryptCore/InjectHelper.m:272:53
	movq	-88(%rbp), %rsi
	.loc	1 272 24                ## /Users/tedzhang/Work/iTunesDecryptCore/DecryptCore/DecryptCore/InjectHelper.m:272:24
	movq	%rsi, -16(%rbp)
	movq	L_OBJC_CLASSLIST_REFERENCES_$_.112(%rip), %rsi
	movq	L_OBJC_SELECTOR_REFERENCES_.114(%rip), %rdi
	movq	%rdi, -224(%rbp)        ## 8-byte Spill
	movq	%rsi, %rdi
	movq	-224(%rbp), %rsi        ## 8-byte Reload
	callq	*_objc_msgSend@GOTPCREL(%rip)
	movq	%rax, %rdi
	callq	_objc_retainAutoreleasedReturnValue
	leaq	L__unnamed_cfstring_.117(%rip), %rcx
	movq	%rax, -128(%rbp)
	.loc	1 273 24 is_stmt 1      ## /Users/tedzhang/Work/iTunesDecryptCore/DecryptCore/DecryptCore/InjectHelper.m:273:24
	movq	L_OBJC_CLASSLIST_REFERENCES_$_.115(%rip), %rax
	.loc	1 273 87 is_stmt 0      ## /Users/tedzhang/Work/iTunesDecryptCore/DecryptCore/DecryptCore/InjectHelper.m:273:87
	movq	-128(%rbp), %rdx
	.loc	1 273 24                ## /Users/tedzhang/Work/iTunesDecryptCore/DecryptCore/DecryptCore/InjectHelper.m:273:24
	movq	L_OBJC_SELECTOR_REFERENCES_.119(%rip), %rsi
	movq	%rax, %rdi
	movq	%rdx, -232(%rbp)        ## 8-byte Spill
	movq	%rcx, %rdx
	movq	-232(%rbp), %rcx        ## 8-byte Reload
	callq	*_objc_msgSend@GOTPCREL(%rip)
	.loc	1 273 17                ## /Users/tedzhang/Work/iTunesDecryptCore/DecryptCore/DecryptCore/InjectHelper.m:273:17
	movq	%rax, %rdi
	callq	_objc_retainAutoreleasedReturnValue
	movq	%rax, -136(%rbp)
	.loc	1 274 10 is_stmt 1      ## /Users/tedzhang/Work/iTunesDecryptCore/DecryptCore/DecryptCore/InjectHelper.m:274:10
	movq	-136(%rbp), %rax
	.loc	1 274 9 is_stmt 0       ## /Users/tedzhang/Work/iTunesDecryptCore/DecryptCore/DecryptCore/InjectHelper.m:274:9
	movq	L_OBJC_SELECTOR_REFERENCES_.121(%rip), %rsi
	movq	%rax, %rdi
	callq	*_objc_msgSend@GOTPCREL(%rip)
	leaq	L__unnamed_cfstring_.123(%rip), %rax
	.loc	1 276 34 is_stmt 1      ## /Users/tedzhang/Work/iTunesDecryptCore/DecryptCore/DecryptCore/InjectHelper.m:276:34
	movq	-88(%rbp), %rcx
	.loc	1 276 33 is_stmt 0      ## /Users/tedzhang/Work/iTunesDecryptCore/DecryptCore/DecryptCore/InjectHelper.m:276:33
	movq	L_OBJC_SELECTOR_REFERENCES_.83(%rip), %rsi
	movq	%rcx, %rdi
	movq	%rax, %rdx
	callq	*_objc_msgSend@GOTPCREL(%rip)
	.loc	1 276 19                ## /Users/tedzhang/Work/iTunesDecryptCore/DecryptCore/DecryptCore/InjectHelper.m:276:19
	movq	%rax, %rdi
	callq	_objc_retainAutoreleasedReturnValue
	movq	%rax, -144(%rbp)
Ltmp152:
	.loc	1 277 15 is_stmt 1      ## /Users/tedzhang/Work/iTunesDecryptCore/DecryptCore/DecryptCore/InjectHelper.m:277:15
	movq	-136(%rbp), %rax
	.loc	1 277 14 is_stmt 0      ## /Users/tedzhang/Work/iTunesDecryptCore/DecryptCore/DecryptCore/InjectHelper.m:277:14
	movq	L_OBJC_SELECTOR_REFERENCES_.125(%rip), %rsi
	movq	%rax, %rdi
	callq	*_objc_msgSend@GOTPCREL(%rip)
	cmpl	$0, %eax
Ltmp153:
	.loc	1 277 13                ## /Users/tedzhang/Work/iTunesDecryptCore/DecryptCore/DecryptCore/InjectHelper.m:277:13
	jne	LBB8_10
## %bb.7:
Ltmp154:
	.loc	1 278 18 is_stmt 1      ## /Users/tedzhang/Work/iTunesDecryptCore/DecryptCore/DecryptCore/InjectHelper.m:278:18
	movq	-80(%rbp), %rax
	.loc	1 278 47 is_stmt 0      ## /Users/tedzhang/Work/iTunesDecryptCore/DecryptCore/DecryptCore/InjectHelper.m:278:47
	movq	-144(%rbp), %rdx
	.loc	1 278 17                ## /Users/tedzhang/Work/iTunesDecryptCore/DecryptCore/DecryptCore/InjectHelper.m:278:17
	movq	L_OBJC_SELECTOR_REFERENCES_.97(%rip), %rsi
	movq	%rax, %rdi
	callq	*_objc_msgSend@GOTPCREL(%rip)
	cmpb	$0, %al
Ltmp155:
	.loc	1 278 17                ## /Users/tedzhang/Work/iTunesDecryptCore/DecryptCore/DecryptCore/InjectHelper.m:278:17
	je	LBB8_9
## %bb.8:
	.loc	1 0 17                  ## /Users/tedzhang/Work/iTunesDecryptCore/DecryptCore/DecryptCore/InjectHelper.m:0:17
	leaq	_patchedITunesPath(%rip), %rax
Ltmp156:
	.loc	1 279 35 is_stmt 1      ## /Users/tedzhang/Work/iTunesDecryptCore/DecryptCore/DecryptCore/InjectHelper.m:279:35
	movq	-144(%rbp), %rcx
	movq	%rax, %rdi
	movq	%rcx, %rsi
	callq	_objc_storeStrong
Ltmp157:
LBB8_9:
	.loc	1 281 9                 ## /Users/tedzhang/Work/iTunesDecryptCore/DecryptCore/DecryptCore/InjectHelper.m:281:9
	jmp	LBB8_10
Ltmp158:
LBB8_10:
	.loc	1 0 9 is_stmt 0         ## /Users/tedzhang/Work/iTunesDecryptCore/DecryptCore/DecryptCore/InjectHelper.m:0:9
	leaq	L__unnamed_cfstring_.127(%rip), %rax
	.loc	1 283 37 is_stmt 1      ## /Users/tedzhang/Work/iTunesDecryptCore/DecryptCore/DecryptCore/InjectHelper.m:283:37
	movq	-88(%rbp), %rcx
	.loc	1 283 36 is_stmt 0      ## /Users/tedzhang/Work/iTunesDecryptCore/DecryptCore/DecryptCore/InjectHelper.m:283:36
	movq	L_OBJC_SELECTOR_REFERENCES_.83(%rip), %rsi
	movq	%rcx, %rdi
	movq	%rax, %rdx
	callq	*_objc_msgSend@GOTPCREL(%rip)
	.loc	1 283 19                ## /Users/tedzhang/Work/iTunesDecryptCore/DecryptCore/DecryptCore/InjectHelper.m:283:19
	movq	%rax, %rdi
	callq	_objc_retainAutoreleasedReturnValue
	movq	%rax, -152(%rbp)
Ltmp159:
	.loc	1 284 15 is_stmt 1      ## /Users/tedzhang/Work/iTunesDecryptCore/DecryptCore/DecryptCore/InjectHelper.m:284:15
	movq	-80(%rbp), %rax
	.loc	1 284 44 is_stmt 0      ## /Users/tedzhang/Work/iTunesDecryptCore/DecryptCore/DecryptCore/InjectHelper.m:284:44
	movq	-152(%rbp), %rdx
	.loc	1 284 14                ## /Users/tedzhang/Work/iTunesDecryptCore/DecryptCore/DecryptCore/InjectHelper.m:284:14
	movq	L_OBJC_SELECTOR_REFERENCES_.97(%rip), %rsi
	movq	%rax, %rdi
	callq	*_objc_msgSend@GOTPCREL(%rip)
	cmpb	$0, %al
Ltmp160:
	.loc	1 284 13                ## /Users/tedzhang/Work/iTunesDecryptCore/DecryptCore/DecryptCore/InjectHelper.m:284:13
	jne	LBB8_12
## %bb.11:
	.loc	1 0 13                  ## /Users/tedzhang/Work/iTunesDecryptCore/DecryptCore/DecryptCore/InjectHelper.m:0:13
	leaq	L__unnamed_cfstring_.129(%rip), %rax
	leaq	L__unnamed_cfstring_.131(%rip), %rcx
Ltmp161:
	.loc	1 285 46 is_stmt 1      ## /Users/tedzhang/Work/iTunesDecryptCore/DecryptCore/DecryptCore/InjectHelper.m:285:46
	movq	-64(%rbp), %rdx
	.loc	1 285 45 is_stmt 0      ## /Users/tedzhang/Work/iTunesDecryptCore/DecryptCore/DecryptCore/InjectHelper.m:285:45
	movq	L_OBJC_SELECTOR_REFERENCES_.95(%rip), %rsi
	movq	%rdx, %rdi
	movq	%rax, %rdx
	callq	*_objc_msgSend@GOTPCREL(%rip)
	.loc	1 285 23                ## /Users/tedzhang/Work/iTunesDecryptCore/DecryptCore/DecryptCore/InjectHelper.m:285:23
	movq	%rax, %rdi
	callq	_objc_retainAutoreleasedReturnValue
	xorl	%r8d, %r8d
                                        ## kill: def %r8 killed %r8d
	movq	%rax, -160(%rbp)
	.loc	1 286 14 is_stmt 1      ## /Users/tedzhang/Work/iTunesDecryptCore/DecryptCore/DecryptCore/InjectHelper.m:286:14
	movq	-80(%rbp), %rax
	.loc	1 286 41 is_stmt 0      ## /Users/tedzhang/Work/iTunesDecryptCore/DecryptCore/DecryptCore/InjectHelper.m:286:41
	movq	-160(%rbp), %rdx
	.loc	1 286 68                ## /Users/tedzhang/Work/iTunesDecryptCore/DecryptCore/DecryptCore/InjectHelper.m:286:68
	movq	-152(%rbp), %rcx
	.loc	1 286 13                ## /Users/tedzhang/Work/iTunesDecryptCore/DecryptCore/DecryptCore/InjectHelper.m:286:13
	movq	L_OBJC_SELECTOR_REFERENCES_.133(%rip), %rsi
	movq	%rax, %rdi
	callq	*_objc_msgSend@GOTPCREL(%rip)
	xorl	%r9d, %r9d
	movl	%r9d, %esi
	leaq	-160(%rbp), %rcx
Ltmp162:
	.loc	1 287 9 is_stmt 1       ## /Users/tedzhang/Work/iTunesDecryptCore/DecryptCore/DecryptCore/InjectHelper.m:287:9
	movq	%rcx, %rdi
	movb	%al, -233(%rbp)         ## 1-byte Spill
	callq	_objc_storeStrong
Ltmp163:
LBB8_12:
	.loc	1 0 9 is_stmt 0         ## /Users/tedzhang/Work/iTunesDecryptCore/DecryptCore/DecryptCore/InjectHelper.m:0:9
	leaq	_patchedKextPath(%rip), %rax
	.loc	1 288 25 is_stmt 1      ## /Users/tedzhang/Work/iTunesDecryptCore/DecryptCore/DecryptCore/InjectHelper.m:288:25
	movq	-152(%rbp), %rcx
	movq	%rax, %rdi
	movq	%rcx, %rsi
	callq	_objc_storeStrong
	xorl	%edx, %edx
	movl	%edx, %esi
	leaq	-152(%rbp), %rax
Ltmp164:
	.loc	1 289 5                 ## /Users/tedzhang/Work/iTunesDecryptCore/DecryptCore/DecryptCore/InjectHelper.m:289:5
	movq	%rax, %rdi
	callq	_objc_storeStrong
	xorl	%edx, %edx
	movl	%edx, %esi
	leaq	-144(%rbp), %rax
	movq	%rax, %rdi
	callq	_objc_storeStrong
	xorl	%edx, %edx
	movl	%edx, %esi
	leaq	-136(%rbp), %rax
	movq	%rax, %rdi
	callq	_objc_storeStrong
	xorl	%edx, %edx
	movl	%edx, %esi
	leaq	-128(%rbp), %rax
	movq	%rax, %rdi
	callq	_objc_storeStrong
	xorl	%edx, %edx
	movl	%edx, %esi
	leaq	-112(%rbp), %rax
	movq	%rax, %rdi
	callq	_objc_storeStrong
	xorl	%edx, %edx
	movl	%edx, %esi
	leaq	-104(%rbp), %rax
	movq	%rax, %rdi
	callq	_objc_storeStrong
	xorl	%edx, %edx
	movl	%edx, %esi
	leaq	-96(%rbp), %rax
	movq	%rax, %rdi
	callq	_objc_storeStrong
Ltmp165:
	.loc	1 289 5 is_stmt 0       ## /Users/tedzhang/Work/iTunesDecryptCore/DecryptCore/DecryptCore/InjectHelper.m:289:5
	jmp	LBB8_14
Ltmp166:
LBB8_13:
	.loc	1 0 5                   ## /Users/tedzhang/Work/iTunesDecryptCore/DecryptCore/DecryptCore/InjectHelper.m:0:5
	leaq	L__unnamed_cfstring_.135(%rip), %rax
Ltmp167:
	.loc	1 291 9 is_stmt 1       ## /Users/tedzhang/Work/iTunesDecryptCore/DecryptCore/DecryptCore/InjectHelper.m:291:9
	movq	%rax, %rdi
	movb	$0, %al
	callq	_NSLog
Ltmp168:
LBB8_14:
	.loc	1 0 9 is_stmt 0         ## /Users/tedzhang/Work/iTunesDecryptCore/DecryptCore/DecryptCore/InjectHelper.m:0:9
	xorl	%eax, %eax
	movl	%eax, %esi
	leaq	-88(%rbp), %rcx
	.loc	1 293 1 is_stmt 1       ## /Users/tedzhang/Work/iTunesDecryptCore/DecryptCore/DecryptCore/InjectHelper.m:293:1
	movq	%rcx, %rdi
	callq	_objc_storeStrong
	xorl	%eax, %eax
	movl	%eax, %esi
	leaq	-80(%rbp), %rcx
	movq	%rcx, %rdi
	callq	_objc_storeStrong
	xorl	%eax, %eax
	movl	%eax, %esi
	leaq	-72(%rbp), %rcx
	movq	%rcx, %rdi
	callq	_objc_storeStrong
	xorl	%eax, %eax
	movl	%eax, %esi
	leaq	-64(%rbp), %rcx
	movq	%rcx, %rdi
	callq	_objc_storeStrong
	movq	___stack_chk_guard@GOTPCREL(%rip), %rcx
	movq	(%rcx), %rcx
	movq	-8(%rbp), %rsi
	cmpq	%rsi, %rcx
	jne	LBB8_16
## %bb.15:
	addq	$240, %rsp
	popq	%rbp
	retq
LBB8_16:
	.loc	1 0 0 is_stmt 0         ## /Users/tedzhang/Work/iTunesDecryptCore/DecryptCore/DecryptCore/InjectHelper.m:0:0
	callq	___stack_chk_fail
	ud2
Ltmp169:
Lfunc_end8:
	.cfi_endproc
                                        ## -- End function
	.globl	_patchedITunesPath      ## @patchedITunesPath
.zerofill __DATA,__common,_patchedITunesPath,8,3
	.globl	_patchedKextPath        ## @patchedKextPath
.zerofill __DATA,__common,_patchedKextPath,8,3
	.section	__DATA,__objc_classrefs,regular,no_dead_strip
	.p2align	3               ## @"OBJC_CLASSLIST_REFERENCES_$_"
L_OBJC_CLASSLIST_REFERENCES_$_:
	.quad	_OBJC_CLASS_$_NSBundle

	.section	__TEXT,__cstring,cstring_literals
L_.str:                                 ## @.str
	.asciz	"/Applications/iTunes.app"

	.section	__DATA,__cfstring
	.p2align	3               ## @_unnamed_cfstring_
L__unnamed_cfstring_:
	.quad	___CFConstantStringClassReference
	.long	1992                    ## 0x7c8
	.space	4
	.quad	L_.str
	.quad	24                      ## 0x18

	.section	__TEXT,__objc_methname,cstring_literals
L_OBJC_METH_VAR_NAME_:                  ## @OBJC_METH_VAR_NAME_
	.asciz	"bundleWithPath:"

	.section	__DATA,__objc_selrefs,literal_pointers,no_dead_strip
	.p2align	3               ## @OBJC_SELECTOR_REFERENCES_
L_OBJC_SELECTOR_REFERENCES_:
	.quad	L_OBJC_METH_VAR_NAME_

	.section	__TEXT,__objc_methname,cstring_literals
L_OBJC_METH_VAR_NAME_.1:                ## @OBJC_METH_VAR_NAME_.1
	.asciz	"infoDictionary"

	.section	__DATA,__objc_selrefs,literal_pointers,no_dead_strip
	.p2align	3               ## @OBJC_SELECTOR_REFERENCES_.2
L_OBJC_SELECTOR_REFERENCES_.2:
	.quad	L_OBJC_METH_VAR_NAME_.1

	.section	__TEXT,__cstring,cstring_literals
L_.str.3:                               ## @.str.3
	.asciz	"CFBundleVersion"

	.section	__DATA,__cfstring
	.p2align	3               ## @_unnamed_cfstring_.4
L__unnamed_cfstring_.4:
	.quad	___CFConstantStringClassReference
	.long	1992                    ## 0x7c8
	.space	4
	.quad	L_.str.3
	.quad	15                      ## 0xf

	.section	__TEXT,__objc_methname,cstring_literals
L_OBJC_METH_VAR_NAME_.5:                ## @OBJC_METH_VAR_NAME_.5
	.asciz	"objectForKeyedSubscript:"

	.section	__DATA,__objc_selrefs,literal_pointers,no_dead_strip
	.p2align	3               ## @OBJC_SELECTOR_REFERENCES_.6
L_OBJC_SELECTOR_REFERENCES_.6:
	.quad	L_OBJC_METH_VAR_NAME_.5

	.section	__TEXT,__cstring,cstring_literals
L_.str.7:                               ## @.str.7
	.asciz	"CFBundleGetInfoString"

	.section	__DATA,__cfstring
	.p2align	3               ## @_unnamed_cfstring_.8
L__unnamed_cfstring_.8:
	.quad	___CFConstantStringClassReference
	.long	1992                    ## 0x7c8
	.space	4
	.quad	L_.str.7
	.quad	21                      ## 0x15

	.section	__TEXT,__objc_methname,cstring_literals
L_OBJC_METH_VAR_NAME_.9:                ## @OBJC_METH_VAR_NAME_.9
	.asciz	"rangeOfString:"

	.section	__DATA,__objc_selrefs,literal_pointers,no_dead_strip
	.p2align	3               ## @OBJC_SELECTOR_REFERENCES_.10
L_OBJC_SELECTOR_REFERENCES_.10:
	.quad	L_OBJC_METH_VAR_NAME_.9

	.section	__TEXT,__objc_methname,cstring_literals
L_OBJC_METH_VAR_NAME_.11:               ## @OBJC_METH_VAR_NAME_.11
	.asciz	"length"

	.section	__DATA,__objc_selrefs,literal_pointers,no_dead_strip
	.p2align	3               ## @OBJC_SELECTOR_REFERENCES_.12
L_OBJC_SELECTOR_REFERENCES_.12:
	.quad	L_OBJC_METH_VAR_NAME_.11

	.section	__TEXT,__cstring,cstring_literals
L_.str.13:                              ## @.str.13
	.asciz	","

	.section	__DATA,__cfstring
	.p2align	3               ## @_unnamed_cfstring_.14
L__unnamed_cfstring_.14:
	.quad	___CFConstantStringClassReference
	.long	1992                    ## 0x7c8
	.space	4
	.quad	L_.str.13
	.quad	1                       ## 0x1

	.section	__TEXT,__objc_methname,cstring_literals
L_OBJC_METH_VAR_NAME_.15:               ## @OBJC_METH_VAR_NAME_.15
	.asciz	"rangeOfString:options:range:"

	.section	__DATA,__objc_selrefs,literal_pointers,no_dead_strip
	.p2align	3               ## @OBJC_SELECTOR_REFERENCES_.16
L_OBJC_SELECTOR_REFERENCES_.16:
	.quad	L_OBJC_METH_VAR_NAME_.15

	.section	__TEXT,__objc_methname,cstring_literals
L_OBJC_METH_VAR_NAME_.17:               ## @OBJC_METH_VAR_NAME_.17
	.asciz	"substringWithRange:"

	.section	__DATA,__objc_selrefs,literal_pointers,no_dead_strip
	.p2align	3               ## @OBJC_SELECTOR_REFERENCES_.18
L_OBJC_SELECTOR_REFERENCES_.18:
	.quad	L_OBJC_METH_VAR_NAME_.17

	.section	__TEXT,__cstring,cstring_literals
L_.str.19:                              ## @.str.19
	.asciz	"."

	.section	__DATA,__cfstring
	.p2align	3               ## @_unnamed_cfstring_.20
L__unnamed_cfstring_.20:
	.quad	___CFConstantStringClassReference
	.long	1992                    ## 0x7c8
	.space	4
	.quad	L_.str.19
	.quad	1                       ## 0x1

	.section	__TEXT,__objc_methname,cstring_literals
L_OBJC_METH_VAR_NAME_.21:               ## @OBJC_METH_VAR_NAME_.21
	.asciz	"componentsSeparatedByString:"

	.section	__DATA,__objc_selrefs,literal_pointers,no_dead_strip
	.p2align	3               ## @OBJC_SELECTOR_REFERENCES_.22
L_OBJC_SELECTOR_REFERENCES_.22:
	.quad	L_OBJC_METH_VAR_NAME_.21

	.section	__DATA,__objc_classrefs,regular,no_dead_strip
	.p2align	3               ## @"OBJC_CLASSLIST_REFERENCES_$_.23"
L_OBJC_CLASSLIST_REFERENCES_$_.23:
	.quad	_OBJC_CLASS_$_NSProcessInfo

	.section	__TEXT,__objc_methname,cstring_literals
L_OBJC_METH_VAR_NAME_.24:               ## @OBJC_METH_VAR_NAME_.24
	.asciz	"processInfo"

	.section	__DATA,__objc_selrefs,literal_pointers,no_dead_strip
	.p2align	3               ## @OBJC_SELECTOR_REFERENCES_.25
L_OBJC_SELECTOR_REFERENCES_.25:
	.quad	L_OBJC_METH_VAR_NAME_.24

	.section	__TEXT,__objc_methname,cstring_literals
L_OBJC_METH_VAR_NAME_.26:               ## @OBJC_METH_VAR_NAME_.26
	.asciz	"operatingSystemVersion"

	.section	__DATA,__objc_selrefs,literal_pointers,no_dead_strip
	.p2align	3               ## @OBJC_SELECTOR_REFERENCES_.27
L_OBJC_SELECTOR_REFERENCES_.27:
	.quad	L_OBJC_METH_VAR_NAME_.26

	.section	__TEXT,__cstring,cstring_literals
L_.str.28:                              ## @.str.28
	.asciz	"/Applications/iTunes.app/Contents/MacOS/iTunes"

	.section	__DATA,__cfstring
	.p2align	3               ## @_unnamed_cfstring_.29
L__unnamed_cfstring_.29:
	.quad	___CFConstantStringClassReference
	.long	1992                    ## 0x7c8
	.space	4
	.quad	L_.str.28
	.quad	46                      ## 0x2e

	.section	__TEXT,__objc_methname,cstring_literals
L_OBJC_METH_VAR_NAME_.30:               ## @OBJC_METH_VAR_NAME_.30
	.asciz	"bundleIdentifier"

	.section	__DATA,__objc_selrefs,literal_pointers,no_dead_strip
	.p2align	3               ## @OBJC_SELECTOR_REFERENCES_.31
L_OBJC_SELECTOR_REFERENCES_.31:
	.quad	L_OBJC_METH_VAR_NAME_.30

	.section	__TEXT,__cstring,cstring_literals
L_.str.32:                              ## @.str.32
	.asciz	"com.apple.iTunes"

	.section	__DATA,__cfstring
	.p2align	3               ## @_unnamed_cfstring_.33
L__unnamed_cfstring_.33:
	.quad	___CFConstantStringClassReference
	.long	1992                    ## 0x7c8
	.space	4
	.quad	L_.str.32
	.quad	16                      ## 0x10

	.section	__TEXT,__objc_methname,cstring_literals
L_OBJC_METH_VAR_NAME_.34:               ## @OBJC_METH_VAR_NAME_.34
	.asciz	"isEqualToString:"

	.section	__DATA,__objc_selrefs,literal_pointers,no_dead_strip
	.p2align	3               ## @OBJC_SELECTOR_REFERENCES_.35
L_OBJC_SELECTOR_REFERENCES_.35:
	.quad	L_OBJC_METH_VAR_NAME_.34

	.section	__DATA,__objc_data
	.globl	_OBJC_CLASS_$_InjectHelper ## @"OBJC_CLASS_$_InjectHelper"
	.p2align	3
_OBJC_CLASS_$_InjectHelper:
	.quad	_OBJC_METACLASS_$_InjectHelper
	.quad	_OBJC_CLASS_$_NSObject
	.quad	__objc_empty_cache
	.quad	0
	.quad	l_OBJC_CLASS_RO_$_InjectHelper

	.section	__DATA,__objc_classrefs,regular,no_dead_strip
	.p2align	3               ## @"OBJC_CLASSLIST_REFERENCES_$_.36"
L_OBJC_CLASSLIST_REFERENCES_$_.36:
	.quad	_OBJC_CLASS_$_InjectHelper

	.section	__TEXT,__objc_methname,cstring_literals
L_OBJC_METH_VAR_NAME_.37:               ## @OBJC_METH_VAR_NAME_.37
	.asciz	"ITunesVersions:"

	.section	__DATA,__objc_selrefs,literal_pointers,no_dead_strip
	.p2align	3               ## @OBJC_SELECTOR_REFERENCES_.38
L_OBJC_SELECTOR_REFERENCES_.38:
	.quad	L_OBJC_METH_VAR_NAME_.37

	.section	__TEXT,__objc_methname,cstring_literals
L_OBJC_METH_VAR_NAME_.39:               ## @OBJC_METH_VAR_NAME_.39
	.asciz	"componentsJoinedByString:"

	.section	__DATA,__objc_selrefs,literal_pointers,no_dead_strip
	.p2align	3               ## @OBJC_SELECTOR_REFERENCES_.40
L_OBJC_SELECTOR_REFERENCES_.40:
	.quad	L_OBJC_METH_VAR_NAME_.39

	.section	__TEXT,__cstring,cstring_literals
L_.str.41:                              ## @.str.41
	.asciz	"itunes version is %@"

	.section	__DATA,__cfstring
	.p2align	3               ## @_unnamed_cfstring_.42
L__unnamed_cfstring_.42:
	.quad	___CFConstantStringClassReference
	.long	1992                    ## 0x7c8
	.space	4
	.quad	L_.str.41
	.quad	20                      ## 0x14

	.section	__TEXT,__objc_methname,cstring_literals
L_OBJC_METH_VAR_NAME_.43:               ## @OBJC_METH_VAR_NAME_.43
	.asciz	"objectAtIndexedSubscript:"

	.section	__DATA,__objc_selrefs,literal_pointers,no_dead_strip
	.p2align	3               ## @OBJC_SELECTOR_REFERENCES_.44
L_OBJC_SELECTOR_REFERENCES_.44:
	.quad	L_OBJC_METH_VAR_NAME_.43

	.section	__TEXT,__objc_methname,cstring_literals
L_OBJC_METH_VAR_NAME_.45:               ## @OBJC_METH_VAR_NAME_.45
	.asciz	"intValue"

	.section	__DATA,__objc_selrefs,literal_pointers,no_dead_strip
	.p2align	3               ## @OBJC_SELECTOR_REFERENCES_.46
L_OBJC_SELECTOR_REFERENCES_.46:
	.quad	L_OBJC_METH_VAR_NAME_.45

	.section	__TEXT,__objc_methname,cstring_literals
L_OBJC_METH_VAR_NAME_.47:               ## @OBJC_METH_VAR_NAME_.47
	.asciz	"isOnlyRecordMode"

	.section	__DATA,__objc_selrefs,literal_pointers,no_dead_strip
	.p2align	3               ## @OBJC_SELECTOR_REFERENCES_.48
L_OBJC_SELECTOR_REFERENCES_.48:
	.quad	L_OBJC_METH_VAR_NAME_.47

	.section	__TEXT,__objc_methname,cstring_literals
L_OBJC_METH_VAR_NAME_.49:               ## @OBJC_METH_VAR_NAME_.49
	.asciz	"isSIPEnabled"

	.section	__DATA,__objc_selrefs,literal_pointers,no_dead_strip
	.p2align	3               ## @OBJC_SELECTOR_REFERENCES_.50
L_OBJC_SELECTOR_REFERENCES_.50:
	.quad	L_OBJC_METH_VAR_NAME_.49

	.section	__TEXT,__cstring,cstring_literals
L_.str.51:                              ## @.str.51
	.asciz	"com.apple.kext.mingjie.VirtualDisplay"

	.section	__DATA,__cfstring
	.p2align	3               ## @_unnamed_cfstring_.52
L__unnamed_cfstring_.52:
	.quad	___CFConstantStringClassReference
	.long	1992                    ## 0x7c8
	.space	4
	.quad	L_.str.51
	.quad	37                      ## 0x25

	.section	__TEXT,__cstring,cstring_literals
L_.str.53:                              ## @.str.53
	.asciz	"OSBundleStarted"

	.section	__DATA,__cfstring
	.p2align	3               ## @_unnamed_cfstring_.54
L__unnamed_cfstring_.54:
	.quad	___CFConstantStringClassReference
	.long	1992                    ## 0x7c8
	.space	4
	.quad	L_.str.53
	.quad	15                      ## 0xf

	.section	__TEXT,__cstring,cstring_literals
L_.str.55:                              ## @.str.55
	.asciz	"kernel driver is installed, but does not appear to be running on this host"

	.section	__DATA,__cfstring
	.p2align	3               ## @_unnamed_cfstring_.56
L__unnamed_cfstring_.56:
	.quad	___CFConstantStringClassReference
	.long	1992                    ## 0x7c8
	.space	4
	.quad	L_.str.55
	.quad	74                      ## 0x4a

	.section	__TEXT,__cstring,cstring_literals
L_.str.57:                              ## @.str.57
	.asciz	"kernel driver does not appear to be installed on this host, need installed frist."

	.section	__DATA,__cfstring
	.p2align	3               ## @_unnamed_cfstring_.58
L__unnamed_cfstring_.58:
	.quad	___CFConstantStringClassReference
	.long	1992                    ## 0x7c8
	.space	4
	.quad	L_.str.57
	.quad	81                      ## 0x51

	.section	__TEXT,__cstring,cstring_literals
L_.str.59:                              ## @.str.59
	.asciz	"B16@?0^{AuthorizationOpaqueRef=}8"

	.section	__DATA,__const
	.p2align	3               ## @__block_descriptor_tmp
___block_descriptor_tmp:
	.quad	0                       ## 0x0
	.quad	32                      ## 0x20
	.quad	L_.str.59
	.quad	0

	.p2align	3               ## @__block_literal_global
___block_literal_global:
	.quad	__NSConcreteGlobalBlock
	.long	1342177280              ## 0x50000000
	.long	0                       ## 0x0
	.quad	"___38+[InjectHelper injectorModeForBundle:]_block_invoke"
	.quad	___block_descriptor_tmp

	.section	__TEXT,__objc_methname,cstring_literals
L_OBJC_METH_VAR_NAME_.60:               ## @OBJC_METH_VAR_NAME_.60
	.asciz	"UTF8String"

	.section	__DATA,__objc_selrefs,literal_pointers,no_dead_strip
	.p2align	3               ## @OBJC_SELECTOR_REFERENCES_.61
L_OBJC_SELECTOR_REFERENCES_.61:
	.quad	L_OBJC_METH_VAR_NAME_.60

	.section	__TEXT,__cstring,cstring_literals
L_.str.62:                              ## @.str.62
	.asciz	"-R"

L_.str.63:                              ## @.str.63
	.asciz	"0:0"

L_.str.64:                              ## @.str.64
	.asciz	"/usr/sbin/chown"

L_.str.65:                              ## @.str.65
	.asciz	"/sbin/kextload"

	.section	__TEXT,__objc_methname,cstring_literals
L_OBJC_METH_VAR_NAME_.66:               ## @OBJC_METH_VAR_NAME_.66
	.asciz	"doAuthorizedOperations:"

	.section	__DATA,__objc_selrefs,literal_pointers,no_dead_strip
	.p2align	3               ## @OBJC_SELECTOR_REFERENCES_.67
L_OBJC_SELECTOR_REFERENCES_.67:
	.quad	L_OBJC_METH_VAR_NAME_.66

	.globl	_myAuthorizationRef     ## @myAuthorizationRef
.zerofill __DATA,__common,_myAuthorizationRef,8,3
	.section	__TEXT,__cstring,cstring_literals
L_.str.68:                              ## @.str.68
	.asciz	"system.privilege.admin"

	.section	__DATA,__const
	.p2align	3               ## @"doAuthorizedOperations:.right"
"l_doAuthorizedOperations:.right":
	.quad	L_.str.68
	.quad	0                       ## 0x0
	.quad	0
	.long	0                       ## 0x0
	.space	4

	.section	__DATA,__objc_classrefs,regular,no_dead_strip
	.p2align	3               ## @"OBJC_CLASSLIST_REFERENCES_$_.69"
L_OBJC_CLASSLIST_REFERENCES_$_.69:
	.quad	_OBJC_CLASS_$_NSFileManager

	.section	__TEXT,__objc_methname,cstring_literals
L_OBJC_METH_VAR_NAME_.70:               ## @OBJC_METH_VAR_NAME_.70
	.asciz	"defaultManager"

	.section	__DATA,__objc_selrefs,literal_pointers,no_dead_strip
	.p2align	3               ## @OBJC_SELECTOR_REFERENCES_.71
L_OBJC_SELECTOR_REFERENCES_.71:
	.quad	L_OBJC_METH_VAR_NAME_.70

	.section	__TEXT,__objc_methname,cstring_literals
L_OBJC_METH_VAR_NAME_.72:               ## @OBJC_METH_VAR_NAME_.72
	.asciz	"stringByDeletingLastPathComponent"

	.section	__DATA,__objc_selrefs,literal_pointers,no_dead_strip
	.p2align	3               ## @OBJC_SELECTOR_REFERENCES_.73
L_OBJC_SELECTOR_REFERENCES_.73:
	.quad	L_OBJC_METH_VAR_NAME_.72

	.section	__TEXT,__objc_methname,cstring_literals
L_OBJC_METH_VAR_NAME_.74:               ## @OBJC_METH_VAR_NAME_.74
	.asciz	"attributesOfItemAtPath:error:"

	.section	__DATA,__objc_selrefs,literal_pointers,no_dead_strip
	.p2align	3               ## @OBJC_SELECTOR_REFERENCES_.75
L_OBJC_SELECTOR_REFERENCES_.75:
	.quad	L_OBJC_METH_VAR_NAME_.74

	.section	__TEXT,__objc_methname,cstring_literals
L_OBJC_METH_VAR_NAME_.76:               ## @OBJC_METH_VAR_NAME_.76
	.asciz	"fileSize"

	.section	__DATA,__objc_selrefs,literal_pointers,no_dead_strip
	.p2align	3               ## @OBJC_SELECTOR_REFERENCES_.77
L_OBJC_SELECTOR_REFERENCES_.77:
	.quad	L_OBJC_METH_VAR_NAME_.76

	.section	__TEXT,__objc_methname,cstring_literals
L_OBJC_METH_VAR_NAME_.78:               ## @OBJC_METH_VAR_NAME_.78
	.asciz	"contentsOfDirectoryAtPath:error:"

	.section	__DATA,__objc_selrefs,literal_pointers,no_dead_strip
	.p2align	3               ## @OBJC_SELECTOR_REFERENCES_.79
L_OBJC_SELECTOR_REFERENCES_.79:
	.quad	L_OBJC_METH_VAR_NAME_.78

	.section	__TEXT,__objc_methname,cstring_literals
L_OBJC_METH_VAR_NAME_.80:               ## @OBJC_METH_VAR_NAME_.80
	.asciz	"countByEnumeratingWithState:objects:count:"

	.section	__DATA,__objc_selrefs,literal_pointers,no_dead_strip
	.p2align	3               ## @OBJC_SELECTOR_REFERENCES_.81
L_OBJC_SELECTOR_REFERENCES_.81:
	.quad	L_OBJC_METH_VAR_NAME_.80

	.section	__TEXT,__objc_methname,cstring_literals
L_OBJC_METH_VAR_NAME_.82:               ## @OBJC_METH_VAR_NAME_.82
	.asciz	"stringByAppendingPathComponent:"

	.section	__DATA,__objc_selrefs,literal_pointers,no_dead_strip
	.p2align	3               ## @OBJC_SELECTOR_REFERENCES_.83
L_OBJC_SELECTOR_REFERENCES_.83:
	.quad	L_OBJC_METH_VAR_NAME_.82

	.section	__TEXT,__cstring,cstring_literals
L_.str.84:                              ## @.str.84
	.asciz	"iPodUpdater.bak"

	.section	__DATA,__cfstring
	.p2align	3               ## @_unnamed_cfstring_.85
L__unnamed_cfstring_.85:
	.quad	___CFConstantStringClassReference
	.long	1992                    ## 0x7c8
	.space	4
	.quad	L_.str.84
	.quad	15                      ## 0xf

	.section	__TEXT,__cstring,cstring_literals
L_.str.86:                              ## @.str.86
	.asciz	"libiTunesUpdater"

	.section	__DATA,__cfstring
	.p2align	3               ## @_unnamed_cfstring_.87
L__unnamed_cfstring_.87:
	.quad	___CFConstantStringClassReference
	.long	1992                    ## 0x7c8
	.space	4
	.quad	L_.str.86
	.quad	16                      ## 0x10

	.section	__TEXT,__objc_methname,cstring_literals
L_OBJC_METH_VAR_NAME_.88:               ## @OBJC_METH_VAR_NAME_.88
	.asciz	"class"

	.section	__DATA,__objc_selrefs,literal_pointers,no_dead_strip
	.p2align	3               ## @OBJC_SELECTOR_REFERENCES_.89
L_OBJC_SELECTOR_REFERENCES_.89:
	.quad	L_OBJC_METH_VAR_NAME_.88

	.section	__TEXT,__objc_methname,cstring_literals
L_OBJC_METH_VAR_NAME_.90:               ## @OBJC_METH_VAR_NAME_.90
	.asciz	"bundleForClass:"

	.section	__DATA,__objc_selrefs,literal_pointers,no_dead_strip
	.p2align	3               ## @OBJC_SELECTOR_REFERENCES_.91
L_OBJC_SELECTOR_REFERENCES_.91:
	.quad	L_OBJC_METH_VAR_NAME_.90

	.section	__TEXT,__cstring,cstring_literals
L_.str.92:                              ## @.str.92
	.asciz	"ITunes"

	.section	__DATA,__cfstring
	.p2align	3               ## @_unnamed_cfstring_.93
L__unnamed_cfstring_.93:
	.quad	___CFConstantStringClassReference
	.long	1992                    ## 0x7c8
	.space	4
	.quad	L_.str.92
	.quad	6                       ## 0x6

	.section	__TEXT,__objc_methname,cstring_literals
L_OBJC_METH_VAR_NAME_.94:               ## @OBJC_METH_VAR_NAME_.94
	.asciz	"pathForResource:ofType:"

	.section	__DATA,__objc_selrefs,literal_pointers,no_dead_strip
	.p2align	3               ## @OBJC_SELECTOR_REFERENCES_.95
L_OBJC_SELECTOR_REFERENCES_.95:
	.quad	L_OBJC_METH_VAR_NAME_.94

	.section	__TEXT,__objc_methname,cstring_literals
L_OBJC_METH_VAR_NAME_.96:               ## @OBJC_METH_VAR_NAME_.96
	.asciz	"fileExistsAtPath:"

	.section	__DATA,__objc_selrefs,literal_pointers,no_dead_strip
	.p2align	3               ## @OBJC_SELECTOR_REFERENCES_.97
L_OBJC_SELECTOR_REFERENCES_.97:
	.quad	L_OBJC_METH_VAR_NAME_.96

	.section	__TEXT,__objc_methname,cstring_literals
L_OBJC_METH_VAR_NAME_.98:               ## @OBJC_METH_VAR_NAME_.98
	.asciz	"mainBundle"

	.section	__DATA,__objc_selrefs,literal_pointers,no_dead_strip
	.p2align	3               ## @OBJC_SELECTOR_REFERENCES_.99
L_OBJC_SELECTOR_REFERENCES_.99:
	.quad	L_OBJC_METH_VAR_NAME_.98

	.section	__TEXT,__objc_methname,cstring_literals
L_OBJC_METH_VAR_NAME_.100:              ## @OBJC_METH_VAR_NAME_.100
	.asciz	"objectForInfoDictionaryKey:"

	.section	__DATA,__objc_selrefs,literal_pointers,no_dead_strip
	.p2align	3               ## @OBJC_SELECTOR_REFERENCES_.101
L_OBJC_SELECTOR_REFERENCES_.101:
	.quad	L_OBJC_METH_VAR_NAME_.100

	.section	__TEXT,__objc_methname,cstring_literals
L_OBJC_METH_VAR_NAME_.102:              ## @OBJC_METH_VAR_NAME_.102
	.asciz	"count"

	.section	__DATA,__objc_selrefs,literal_pointers,no_dead_strip
	.p2align	3               ## @OBJC_SELECTOR_REFERENCES_.103
L_OBJC_SELECTOR_REFERENCES_.103:
	.quad	L_OBJC_METH_VAR_NAME_.102

	.section	__TEXT,__objc_methname,cstring_literals
L_OBJC_METH_VAR_NAME_.104:              ## @OBJC_METH_VAR_NAME_.104
	.asciz	"objectAtIndex:"

	.section	__DATA,__objc_selrefs,literal_pointers,no_dead_strip
	.p2align	3               ## @OBJC_SELECTOR_REFERENCES_.105
L_OBJC_SELECTOR_REFERENCES_.105:
	.quad	L_OBJC_METH_VAR_NAME_.104

	.section	__TEXT,__objc_methname,cstring_literals
L_OBJC_METH_VAR_NAME_.106:              ## @OBJC_METH_VAR_NAME_.106
	.asciz	"createDirectoryAtPath:withIntermediateDirectories:attributes:error:"

	.section	__DATA,__objc_selrefs,literal_pointers,no_dead_strip
	.p2align	3               ## @OBJC_SELECTOR_REFERENCES_.107
L_OBJC_SELECTOR_REFERENCES_.107:
	.quad	L_OBJC_METH_VAR_NAME_.106

	.section	__TEXT,__cstring,cstring_literals
L_.str.108:                             ## @.str.108
	.asciz	"-o"

	.section	__DATA,__cfstring
	.p2align	3               ## @_unnamed_cfstring_.109
L__unnamed_cfstring_.109:
	.quad	___CFConstantStringClassReference
	.long	1992                    ## 0x7c8
	.space	4
	.quad	L_.str.108
	.quad	2                       ## 0x2

	.section	__TEXT,__cstring,cstring_literals
L_.str.110:                             ## @.str.110
	.asciz	"-d"

	.section	__DATA,__cfstring
	.p2align	3               ## @_unnamed_cfstring_.111
L__unnamed_cfstring_.111:
	.quad	___CFConstantStringClassReference
	.long	1992                    ## 0x7c8
	.space	4
	.quad	L_.str.110
	.quad	2                       ## 0x2

	.section	__DATA,__objc_classrefs,regular,no_dead_strip
	.p2align	3               ## @"OBJC_CLASSLIST_REFERENCES_$_.112"
L_OBJC_CLASSLIST_REFERENCES_$_.112:
	.quad	_OBJC_CLASS_$_NSArray

	.section	__TEXT,__objc_methname,cstring_literals
L_OBJC_METH_VAR_NAME_.113:              ## @OBJC_METH_VAR_NAME_.113
	.asciz	"arrayWithObjects:count:"

	.section	__DATA,__objc_selrefs,literal_pointers,no_dead_strip
	.p2align	3               ## @OBJC_SELECTOR_REFERENCES_.114
L_OBJC_SELECTOR_REFERENCES_.114:
	.quad	L_OBJC_METH_VAR_NAME_.113

	.section	__DATA,__objc_classrefs,regular,no_dead_strip
	.p2align	3               ## @"OBJC_CLASSLIST_REFERENCES_$_.115"
L_OBJC_CLASSLIST_REFERENCES_$_.115:
	.quad	_OBJC_CLASS_$_NSTask

	.section	__TEXT,__cstring,cstring_literals
L_.str.116:                             ## @.str.116
	.asciz	"/usr/bin/unzip"

	.section	__DATA,__cfstring
	.p2align	3               ## @_unnamed_cfstring_.117
L__unnamed_cfstring_.117:
	.quad	___CFConstantStringClassReference
	.long	1992                    ## 0x7c8
	.space	4
	.quad	L_.str.116
	.quad	14                      ## 0xe

	.section	__TEXT,__objc_methname,cstring_literals
L_OBJC_METH_VAR_NAME_.118:              ## @OBJC_METH_VAR_NAME_.118
	.asciz	"launchedTaskWithLaunchPath:arguments:"

	.section	__DATA,__objc_selrefs,literal_pointers,no_dead_strip
	.p2align	3               ## @OBJC_SELECTOR_REFERENCES_.119
L_OBJC_SELECTOR_REFERENCES_.119:
	.quad	L_OBJC_METH_VAR_NAME_.118

	.section	__TEXT,__objc_methname,cstring_literals
L_OBJC_METH_VAR_NAME_.120:              ## @OBJC_METH_VAR_NAME_.120
	.asciz	"waitUntilExit"

	.section	__DATA,__objc_selrefs,literal_pointers,no_dead_strip
	.p2align	3               ## @OBJC_SELECTOR_REFERENCES_.121
L_OBJC_SELECTOR_REFERENCES_.121:
	.quad	L_OBJC_METH_VAR_NAME_.120

	.section	__TEXT,__cstring,cstring_literals
L_.str.122:                             ## @.str.122
	.asciz	"ITunesPatch"

	.section	__DATA,__cfstring
	.p2align	3               ## @_unnamed_cfstring_.123
L__unnamed_cfstring_.123:
	.quad	___CFConstantStringClassReference
	.long	1992                    ## 0x7c8
	.space	4
	.quad	L_.str.122
	.quad	11                      ## 0xb

	.section	__TEXT,__objc_methname,cstring_literals
L_OBJC_METH_VAR_NAME_.124:              ## @OBJC_METH_VAR_NAME_.124
	.asciz	"terminationStatus"

	.section	__DATA,__objc_selrefs,literal_pointers,no_dead_strip
	.p2align	3               ## @OBJC_SELECTOR_REFERENCES_.125
L_OBJC_SELECTOR_REFERENCES_.125:
	.quad	L_OBJC_METH_VAR_NAME_.124

	.section	__TEXT,__cstring,cstring_literals
L_.str.126:                             ## @.str.126
	.asciz	"VirtualDisplay.kext"

	.section	__DATA,__cfstring
	.p2align	3               ## @_unnamed_cfstring_.127
L__unnamed_cfstring_.127:
	.quad	___CFConstantStringClassReference
	.long	1992                    ## 0x7c8
	.space	4
	.quad	L_.str.126
	.quad	19                      ## 0x13

	.section	__TEXT,__cstring,cstring_literals
L_.str.128:                             ## @.str.128
	.asciz	"VirtualDisplay"

	.section	__DATA,__cfstring
	.p2align	3               ## @_unnamed_cfstring_.129
L__unnamed_cfstring_.129:
	.quad	___CFConstantStringClassReference
	.long	1992                    ## 0x7c8
	.space	4
	.quad	L_.str.128
	.quad	14                      ## 0xe

	.section	__TEXT,__cstring,cstring_literals
L_.str.130:                             ## @.str.130
	.asciz	"kext"

	.section	__DATA,__cfstring
	.p2align	3               ## @_unnamed_cfstring_.131
L__unnamed_cfstring_.131:
	.quad	___CFConstantStringClassReference
	.long	1992                    ## 0x7c8
	.space	4
	.quad	L_.str.130
	.quad	4                       ## 0x4

	.section	__TEXT,__objc_methname,cstring_literals
L_OBJC_METH_VAR_NAME_.132:              ## @OBJC_METH_VAR_NAME_.132
	.asciz	"copyItemAtPath:toPath:error:"

	.section	__DATA,__objc_selrefs,literal_pointers,no_dead_strip
	.p2align	3               ## @OBJC_SELECTOR_REFERENCES_.133
L_OBJC_SELECTOR_REFERENCES_.133:
	.quad	L_OBJC_METH_VAR_NAME_.132

	.section	__TEXT,__cstring,cstring_literals
L_.str.134:                             ## @.str.134
	.asciz	"itunes patch not exist"

	.section	__DATA,__cfstring
	.p2align	3               ## @_unnamed_cfstring_.135
L__unnamed_cfstring_.135:
	.quad	___CFConstantStringClassReference
	.long	1992                    ## 0x7c8
	.space	4
	.quad	L_.str.134
	.quad	22                      ## 0x16

	.section	__TEXT,__objc_classname,cstring_literals
L_OBJC_CLASS_NAME_:                     ## @OBJC_CLASS_NAME_
	.asciz	"InjectHelper"

	.section	__TEXT,__objc_methtype,cstring_literals
L_OBJC_METH_VAR_TYPE_:                  ## @OBJC_METH_VAR_TYPE_
	.asciz	"@24@0:8@16"

L_OBJC_METH_VAR_TYPE_.136:              ## @OBJC_METH_VAR_TYPE_.136
	.asciz	"B16@0:8"

	.section	__TEXT,__objc_methname,cstring_literals
L_OBJC_METH_VAR_NAME_.137:              ## @OBJC_METH_VAR_NAME_.137
	.asciz	"ITunesHelperPath"

	.section	__TEXT,__objc_methtype,cstring_literals
L_OBJC_METH_VAR_TYPE_.138:              ## @OBJC_METH_VAR_TYPE_.138
	.asciz	"@16@0:8"

	.section	__TEXT,__objc_methname,cstring_literals
L_OBJC_METH_VAR_NAME_.139:              ## @OBJC_METH_VAR_NAME_.139
	.asciz	"injectorModeForBundle:"

	.section	__TEXT,__objc_methtype,cstring_literals
L_OBJC_METH_VAR_TYPE_.140:              ## @OBJC_METH_VAR_TYPE_.140
	.asciz	"i24@0:8@16"

L_OBJC_METH_VAR_TYPE_.141:              ## @OBJC_METH_VAR_TYPE_.141
	.asciz	"B24@0:8@?16"

	.section	__TEXT,__objc_methname,cstring_literals
L_OBJC_METH_VAR_NAME_.142:              ## @OBJC_METH_VAR_NAME_.142
	.asciz	"fixUpdaterPath:"

L_OBJC_METH_VAR_NAME_.143:              ## @OBJC_METH_VAR_NAME_.143
	.asciz	"initialize"

	.section	__TEXT,__objc_methtype,cstring_literals
L_OBJC_METH_VAR_TYPE_.144:              ## @OBJC_METH_VAR_TYPE_.144
	.asciz	"v16@0:8"

	.section	__DATA,__objc_const
	.p2align	3               ## @"\01l_OBJC_$_CLASS_METHODS_InjectHelper"
l_OBJC_$_CLASS_METHODS_InjectHelper:
	.long	24                      ## 0x18
	.long	8                       ## 0x8
	.quad	L_OBJC_METH_VAR_NAME_.37
	.quad	L_OBJC_METH_VAR_TYPE_
	.quad	"+[InjectHelper ITunesVersions:]"
	.quad	L_OBJC_METH_VAR_NAME_.47
	.quad	L_OBJC_METH_VAR_TYPE_.136
	.quad	"+[InjectHelper isOnlyRecordMode]"
	.quad	L_OBJC_METH_VAR_NAME_.137
	.quad	L_OBJC_METH_VAR_TYPE_.138
	.quad	"+[InjectHelper ITunesHelperPath]"
	.quad	L_OBJC_METH_VAR_NAME_.49
	.quad	L_OBJC_METH_VAR_TYPE_.136
	.quad	"+[InjectHelper isSIPEnabled]"
	.quad	L_OBJC_METH_VAR_NAME_.139
	.quad	L_OBJC_METH_VAR_TYPE_.140
	.quad	"+[InjectHelper injectorModeForBundle:]"
	.quad	L_OBJC_METH_VAR_NAME_.66
	.quad	L_OBJC_METH_VAR_TYPE_.141
	.quad	"+[InjectHelper doAuthorizedOperations:]"
	.quad	L_OBJC_METH_VAR_NAME_.142
	.quad	L_OBJC_METH_VAR_TYPE_
	.quad	"+[InjectHelper fixUpdaterPath:]"
	.quad	L_OBJC_METH_VAR_NAME_.143
	.quad	L_OBJC_METH_VAR_TYPE_.144
	.quad	"+[InjectHelper initialize]"

	.p2align	3               ## @"\01l_OBJC_METACLASS_RO_$_InjectHelper"
l_OBJC_METACLASS_RO_$_InjectHelper:
	.long	129                     ## 0x81
	.long	40                      ## 0x28
	.long	40                      ## 0x28
	.space	4
	.quad	0
	.quad	L_OBJC_CLASS_NAME_
	.quad	l_OBJC_$_CLASS_METHODS_InjectHelper
	.quad	0
	.quad	0
	.quad	0
	.quad	0

	.section	__DATA,__objc_data
	.globl	_OBJC_METACLASS_$_InjectHelper ## @"OBJC_METACLASS_$_InjectHelper"
	.p2align	3
_OBJC_METACLASS_$_InjectHelper:
	.quad	_OBJC_METACLASS_$_NSObject
	.quad	_OBJC_METACLASS_$_NSObject
	.quad	__objc_empty_cache
	.quad	0
	.quad	l_OBJC_METACLASS_RO_$_InjectHelper

	.section	__DATA,__objc_const
	.p2align	3               ## @"\01l_OBJC_CLASS_RO_$_InjectHelper"
l_OBJC_CLASS_RO_$_InjectHelper:
	.long	128                     ## 0x80
	.long	8                       ## 0x8
	.long	8                       ## 0x8
	.space	4
	.quad	0
	.quad	L_OBJC_CLASS_NAME_
	.quad	0
	.quad	0
	.quad	0
	.quad	0
	.quad	0

	.section	__DATA,__objc_classlist,regular,no_dead_strip
	.p2align	3               ## @"OBJC_LABEL_CLASS_$"
L_OBJC_LABEL_CLASS_$:
	.quad	_OBJC_CLASS_$_InjectHelper

	.linker_option "-framework", "Foundation"
	.linker_option "-framework", "ApplicationServices"
	.linker_option "-framework", "CoreText"
	.linker_option "-framework", "CoreServices"
	.linker_option "-framework", "DiskArbitration"
	.linker_option "-framework", "CFNetwork"
	.linker_option "-framework", "Security"
	.linker_option "-framework", "ImageIO"
	.linker_option "-framework", "ColorSync"
	.linker_option "-framework", "CoreGraphics"
	.linker_option "-framework", "IOKit"
	.linker_option "-framework", "CoreFoundation"
	.section	__DATA,__objc_imageinfo,regular,no_dead_strip
L_OBJC_IMAGE_INFO:
	.long	0
	.long	64

	.file	8 "/Users/tedzhang/Work/iTunesDecryptCore/DecryptCore" "/Applications/Xcode.app/Contents/Developer/Platforms/MacOSX.platform/Developer/SDKs/MacOSX10.14.sdk/System/Library/Frameworks/Foundation.framework/Headers/NSRange.h"
	.file	9 "/Users/tedzhang/Work/iTunesDecryptCore/DecryptCore" "/Applications/Xcode.app/Contents/Developer/Platforms/MacOSX.platform/Developer/SDKs/MacOSX10.14.sdk/System/Library/Frameworks/Foundation.framework/Headers/NSProcessInfo.h"
	.file	10 "/Users/tedzhang/Work/iTunesDecryptCore/DecryptCore" "/Applications/Xcode.app/Contents/Developer/Platforms/MacOSX.platform/Developer/SDKs/MacOSX10.14.sdk/usr/include/_types/_uint32_t.h"
	.file	11 "/Users/tedzhang/Work/iTunesDecryptCore/DecryptCore" "/Applications/Xcode.app/Contents/Developer/Platforms/MacOSX.platform/Developer/SDKs/MacOSX10.14.sdk/System/Library/Frameworks/CoreFoundation.framework/Headers/CFArray.h"
	.file	12 "/Users/tedzhang/Work/iTunesDecryptCore/DecryptCore" "/Applications/Xcode.app/Contents/Developer/Platforms/MacOSX.platform/Developer/SDKs/MacOSX10.14.sdk/System/Library/Frameworks/CoreFoundation.framework/Headers/CFDictionary.h"
	.file	13 "/Users/tedzhang/Work/iTunesDecryptCore/DecryptCore" "/Applications/Xcode.app/Contents/Developer/Platforms/MacOSX.platform/Developer/SDKs/MacOSX10.14.sdk/usr/include/_stdio.h"
	.file	14 "/Users/tedzhang/Work/iTunesDecryptCore/DecryptCore" "/Applications/Xcode.app/Contents/Developer/Platforms/MacOSX.platform/Developer/SDKs/MacOSX10.14.sdk/usr/include/MacTypes.h"